Archive member included because of file (symbol)

c:/program files (x86)/microchip/xc32/v1.21/bin/../lib/gcc/pic32mx/4.5.2/../../../../pic32mx/lib\libmchp_peripheral_32MX460F512L.a(pcache.o)
                              build/C32_PIC32MX460F512L/production/MainDemo.o (CheKseg0CacheOn)
c:/program files (x86)/microchip/xc32/v1.21/bin/../lib/gcc/pic32mx/4.5.2/../../../../pic32mx/lib\libmchp_peripheral_32MX460F512L.a(int_disable_interrupts_lib.o)
                              build/C32_PIC32MX460F512L/production/MainDemo.o (INTDisableInterrupts)
c:/program files (x86)/microchip/xc32/v1.21/bin/../lib/gcc/pic32mx/4.5.2/../../../../pic32mx/lib\libmchp_peripheral_32MX460F512L.a(int_restore_interrupts_lib.o)
                              build/C32_PIC32MX460F512L/production/MainDemo.o (INTRestoreInterrupts)
c:/program files (x86)/microchip/xc32/v1.21/bin/../lib/gcc/pic32mx/4.5.2/../../../../pic32mx/lib\libmchp_peripheral_32MX460F512L.a(int_enable_mv_int_lib.o)
                              build/C32_PIC32MX460F512L/production/MainDemo.o (INTEnableSystemMultiVectoredInt)
c:/program files (x86)/microchip/xc32/v1.21/bin/../lib/gcc/pic32mx/4.5.2/../../../../pic32mx/lib\libmchp_peripheral_32MX460F512L.a(rtcc_init_lib.o)
                              build/C32_PIC32MX460F512L/production/rtcc.o (RtccInit)
c:/program files (x86)/microchip/xc32/v1.21/bin/../lib/gcc/pic32mx/4.5.2/../../../../pic32mx/lib\libmchp_peripheral_32MX460F512L.a(rtcc_set_date_lib.o)
                              build/C32_PIC32MX460F512L/production/rtcc.o (RtccSetDate)
c:/program files (x86)/microchip/xc32/v1.21/bin/../lib/gcc/pic32mx/4.5.2/../../../../pic32mx/lib\libmchp_peripheral_32MX460F512L.a(rtcc_set_time_lib.o)
                              build/C32_PIC32MX460F512L/production/rtcc.o (RtccSetTime)
c:/program files (x86)/microchip/xc32/v1.21/bin/../lib/gcc/pic32mx/4.5.2/../../../../pic32mx/lib\libmchp_peripheral_32MX460F512L.a(int_enable_interrupts_lib.o)
                              c:/program files (x86)/microchip/xc32/v1.21/bin/../lib/gcc/pic32mx/4.5.2/../../../../pic32mx/lib\libmchp_peripheral_32MX460F512L.a(int_enable_mv_int_lib.o) (INTEnableInterrupts)
c:/program files (x86)/microchip/xc32/v1.21/bin/../lib/gcc/pic32mx/4.5.2/../../../../pic32mx/lib\libmchp_peripheral_32MX460F512L.a(int_tbl_lib.o)
                              c:/program files (x86)/microchip/xc32/v1.21/bin/../lib/gcc/pic32mx/4.5.2/../../../../pic32mx/lib\libmchp_peripheral_32MX460F512L.a(rtcc_init_lib.o) (INTClearFlag)
c:/program files (x86)/microchip/xc32/v1.21/bin/../lib/gcc/pic32mx/4.5.2/../../../../pic32mx/lib\libmchp_peripheral_32MX460F512L.a(_rtcc_set_time_and_date_lib.o)
                              c:/program files (x86)/microchip/xc32/v1.21/bin/../lib/gcc/pic32mx/4.5.2/../../../../pic32mx/lib\libmchp_peripheral_32MX460F512L.a(rtcc_set_date_lib.o) (_RtccSetTimeAndDate)
c:/program files (x86)/microchip/xc32/v1.21/bin/../lib/gcc/pic32mx/4.5.2/../../../../pic32mx/lib\libmchp_peripheral_32MX460F512L.a(_rtcc_wait_clock_off_lib.o)
                              c:/program files (x86)/microchip/xc32/v1.21/bin/../lib/gcc/pic32mx/4.5.2/../../../../pic32mx/lib\libmchp_peripheral_32MX460F512L.a(rtcc_init_lib.o) (_RtccWaitClockOff)
c:/program files (x86)/microchip/xc32/v1.21/bin/../lib/gcc/pic32mx/4.5.2/../../../../pic32mx/lib\libmchp_peripheral_32MX460F512L.a(read_core_timer_lib.o)
                              c:/program files (x86)/microchip/xc32/v1.21/bin/../lib/gcc/pic32mx/4.5.2/../../../../pic32mx/lib\libmchp_peripheral_32MX460F512L.a(_rtcc_wait_clock_off_lib.o) (ReadCoreTimer)
c:/program files (x86)/microchip/xc32/v1.21/bin/../lib/gcc/pic32mx/4.5.2/../../../../pic32mx/lib\libpic32.a(memcpy.o)
                              build/C32_PIC32MX460F512L/production/graphics/GOL.o (memcpy)
c:/program files (x86)/microchip/xc32/v1.21/bin/../lib/gcc/pic32mx/4.5.2/../../../../pic32mx/lib\libpic32.a(default-bootstrap-exception-handler.o)
                              c:/program files (x86)/microchip/xc32/v1.21/bin/../lib/gcc/pic32mx/4.5.2/../../../../pic32mx/lib/crt0.o (_bootstrap_exception_handler)
c:/program files (x86)/microchip/xc32/v1.21/bin/../lib/gcc/pic32mx/4.5.2/../../../../pic32mx/lib\libpic32.a(default-on-reset.o)
                              c:/program files (x86)/microchip/xc32/v1.21/bin/../lib/gcc/pic32mx/4.5.2/../../../../pic32mx/lib/crt0.o (_on_reset)
c:/program files (x86)/microchip/xc32/v1.21/bin/../lib/gcc/pic32mx/4.5.2/../../../../pic32mx/lib\libpic32.a(default-on-bootstrap.o)
                              c:/program files (x86)/microchip/xc32/v1.21/bin/../lib/gcc/pic32mx/4.5.2/../../../../pic32mx/lib/crt0.o (_on_bootstrap)
c:/program files (x86)/microchip/xc32/v1.21/bin/../lib/gcc/pic32mx/4.5.2/../../../../pic32mx/lib\libpic32.a(default-nmi-handler.o)
                              c:/program files (x86)/microchip/xc32/v1.21/bin/../lib/gcc/pic32mx/4.5.2/../../../../pic32mx/lib/crt0.o (_nmi_handler)
c:/program files (x86)/microchip/xc32/v1.21/bin/../lib/gcc/pic32mx/4.5.2/../../../../pic32mx/lib\libpic32.a(general-exception.o)
                              c:/program files (x86)/microchip/xc32/v1.21/bin/../lib/gcc/pic32mx/4.5.2/../../../../pic32mx/lib/crt0.o (_general_exception_context)
c:/program files (x86)/microchip/xc32/v1.21/bin/../lib/gcc/pic32mx/4.5.2/../../../../pic32mx/lib\libpic32.a(vector0.o)
                              c:/program files (x86)/microchip/xc32/v1.21/bin/../lib/gcc/pic32mx/4.5.2/../../../../pic32mx/lib/./proc/32MX460F512L\default_isr_vectors.o (__vector_dispatch_0)
c:/program files (x86)/microchip/xc32/v1.21/bin/../lib/gcc/pic32mx/4.5.2/../../../../pic32mx/lib\libpic32.a(vector1.o)
                              c:/program files (x86)/microchip/xc32/v1.21/bin/../lib/gcc/pic32mx/4.5.2/../../../../pic32mx/lib/./proc/32MX460F512L\default_isr_vectors.o (__vector_dispatch_1)
c:/program files (x86)/microchip/xc32/v1.21/bin/../lib/gcc/pic32mx/4.5.2/../../../../pic32mx/lib\libpic32.a(vector2.o)
                              c:/program files (x86)/microchip/xc32/v1.21/bin/../lib/gcc/pic32mx/4.5.2/../../../../pic32mx/lib/./proc/32MX460F512L\default_isr_vectors.o (__vector_dispatch_2)
c:/program files (x86)/microchip/xc32/v1.21/bin/../lib/gcc/pic32mx/4.5.2/../../../../pic32mx/lib\libpic32.a(vector3.o)
                              c:/program files (x86)/microchip/xc32/v1.21/bin/../lib/gcc/pic32mx/4.5.2/../../../../pic32mx/lib/./proc/32MX460F512L\default_isr_vectors.o (__vector_dispatch_3)
c:/program files (x86)/microchip/xc32/v1.21/bin/../lib/gcc/pic32mx/4.5.2/../../../../pic32mx/lib\libpic32.a(vector4.o)
                              c:/program files (x86)/microchip/xc32/v1.21/bin/../lib/gcc/pic32mx/4.5.2/../../../../pic32mx/lib/./proc/32MX460F512L\default_isr_vectors.o (__vector_dispatch_4)
c:/program files (x86)/microchip/xc32/v1.21/bin/../lib/gcc/pic32mx/4.5.2/../../../../pic32mx/lib\libpic32.a(vector5.o)
                              c:/program files (x86)/microchip/xc32/v1.21/bin/../lib/gcc/pic32mx/4.5.2/../../../../pic32mx/lib/./proc/32MX460F512L\default_isr_vectors.o (__vector_dispatch_5)
c:/program files (x86)/microchip/xc32/v1.21/bin/../lib/gcc/pic32mx/4.5.2/../../../../pic32mx/lib\libpic32.a(vector6.o)
                              c:/program files (x86)/microchip/xc32/v1.21/bin/../lib/gcc/pic32mx/4.5.2/../../../../pic32mx/lib/./proc/32MX460F512L\default_isr_vectors.o (__vector_dispatch_6)
c:/program files (x86)/microchip/xc32/v1.21/bin/../lib/gcc/pic32mx/4.5.2/../../../../pic32mx/lib\libpic32.a(vector7.o)
                              c:/program files (x86)/microchip/xc32/v1.21/bin/../lib/gcc/pic32mx/4.5.2/../../../../pic32mx/lib/./proc/32MX460F512L\default_isr_vectors.o (__vector_dispatch_7)
c:/program files (x86)/microchip/xc32/v1.21/bin/../lib/gcc/pic32mx/4.5.2/../../../../pic32mx/lib\libpic32.a(vector8.o)
                              c:/program files (x86)/microchip/xc32/v1.21/bin/../lib/gcc/pic32mx/4.5.2/../../../../pic32mx/lib/./proc/32MX460F512L\default_isr_vectors.o (__vector_dispatch_8)
c:/program files (x86)/microchip/xc32/v1.21/bin/../lib/gcc/pic32mx/4.5.2/../../../../pic32mx/lib\libpic32.a(vector9.o)
                              c:/program files (x86)/microchip/xc32/v1.21/bin/../lib/gcc/pic32mx/4.5.2/../../../../pic32mx/lib/./proc/32MX460F512L\default_isr_vectors.o (__vector_dispatch_9)
c:/program files (x86)/microchip/xc32/v1.21/bin/../lib/gcc/pic32mx/4.5.2/../../../../pic32mx/lib\libpic32.a(vector10.o)
                              c:/program files (x86)/microchip/xc32/v1.21/bin/../lib/gcc/pic32mx/4.5.2/../../../../pic32mx/lib/./proc/32MX460F512L\default_isr_vectors.o (__vector_dispatch_10)
c:/program files (x86)/microchip/xc32/v1.21/bin/../lib/gcc/pic32mx/4.5.2/../../../../pic32mx/lib\libpic32.a(vector11.o)
                              c:/program files (x86)/microchip/xc32/v1.21/bin/../lib/gcc/pic32mx/4.5.2/../../../../pic32mx/lib/./proc/32MX460F512L\default_isr_vectors.o (__vector_dispatch_11)
c:/program files (x86)/microchip/xc32/v1.21/bin/../lib/gcc/pic32mx/4.5.2/../../../../pic32mx/lib\libpic32.a(vector12.o)
                              c:/program files (x86)/microchip/xc32/v1.21/bin/../lib/gcc/pic32mx/4.5.2/../../../../pic32mx/lib/./proc/32MX460F512L\default_isr_vectors.o (__vector_dispatch_12)
c:/program files (x86)/microchip/xc32/v1.21/bin/../lib/gcc/pic32mx/4.5.2/../../../../pic32mx/lib\libpic32.a(vector13.o)
                              c:/program files (x86)/microchip/xc32/v1.21/bin/../lib/gcc/pic32mx/4.5.2/../../../../pic32mx/lib/./proc/32MX460F512L\default_isr_vectors.o (__vector_dispatch_13)
c:/program files (x86)/microchip/xc32/v1.21/bin/../lib/gcc/pic32mx/4.5.2/../../../../pic32mx/lib\libpic32.a(vector14.o)
                              c:/program files (x86)/microchip/xc32/v1.21/bin/../lib/gcc/pic32mx/4.5.2/../../../../pic32mx/lib/./proc/32MX460F512L\default_isr_vectors.o (__vector_dispatch_14)
c:/program files (x86)/microchip/xc32/v1.21/bin/../lib/gcc/pic32mx/4.5.2/../../../../pic32mx/lib\libpic32.a(vector15.o)
                              c:/program files (x86)/microchip/xc32/v1.21/bin/../lib/gcc/pic32mx/4.5.2/../../../../pic32mx/lib/./proc/32MX460F512L\default_isr_vectors.o (__vector_dispatch_15)
c:/program files (x86)/microchip/xc32/v1.21/bin/../lib/gcc/pic32mx/4.5.2/../../../../pic32mx/lib\libpic32.a(vector17.o)
                              c:/program files (x86)/microchip/xc32/v1.21/bin/../lib/gcc/pic32mx/4.5.2/../../../../pic32mx/lib/./proc/32MX460F512L\default_isr_vectors.o (__vector_dispatch_17)
c:/program files (x86)/microchip/xc32/v1.21/bin/../lib/gcc/pic32mx/4.5.2/../../../../pic32mx/lib\libpic32.a(vector18.o)
                              c:/program files (x86)/microchip/xc32/v1.21/bin/../lib/gcc/pic32mx/4.5.2/../../../../pic32mx/lib/./proc/32MX460F512L\default_isr_vectors.o (__vector_dispatch_18)
c:/program files (x86)/microchip/xc32/v1.21/bin/../lib/gcc/pic32mx/4.5.2/../../../../pic32mx/lib\libpic32.a(vector19.o)
                              c:/program files (x86)/microchip/xc32/v1.21/bin/../lib/gcc/pic32mx/4.5.2/../../../../pic32mx/lib/./proc/32MX460F512L\default_isr_vectors.o (__vector_dispatch_19)
c:/program files (x86)/microchip/xc32/v1.21/bin/../lib/gcc/pic32mx/4.5.2/../../../../pic32mx/lib\libpic32.a(vector20.o)
                              c:/program files (x86)/microchip/xc32/v1.21/bin/../lib/gcc/pic32mx/4.5.2/../../../../pic32mx/lib/./proc/32MX460F512L\default_isr_vectors.o (__vector_dispatch_20)
c:/program files (x86)/microchip/xc32/v1.21/bin/../lib/gcc/pic32mx/4.5.2/../../../../pic32mx/lib\libpic32.a(vector21.o)
                              c:/program files (x86)/microchip/xc32/v1.21/bin/../lib/gcc/pic32mx/4.5.2/../../../../pic32mx/lib/./proc/32MX460F512L\default_isr_vectors.o (__vector_dispatch_21)
c:/program files (x86)/microchip/xc32/v1.21/bin/../lib/gcc/pic32mx/4.5.2/../../../../pic32mx/lib\libpic32.a(vector22.o)
                              c:/program files (x86)/microchip/xc32/v1.21/bin/../lib/gcc/pic32mx/4.5.2/../../../../pic32mx/lib/./proc/32MX460F512L\default_isr_vectors.o (__vector_dispatch_22)
c:/program files (x86)/microchip/xc32/v1.21/bin/../lib/gcc/pic32mx/4.5.2/../../../../pic32mx/lib\libpic32.a(vector23.o)
                              c:/program files (x86)/microchip/xc32/v1.21/bin/../lib/gcc/pic32mx/4.5.2/../../../../pic32mx/lib/./proc/32MX460F512L\default_isr_vectors.o (__vector_dispatch_23)
c:/program files (x86)/microchip/xc32/v1.21/bin/../lib/gcc/pic32mx/4.5.2/../../../../pic32mx/lib\libpic32.a(vector24.o)
                              c:/program files (x86)/microchip/xc32/v1.21/bin/../lib/gcc/pic32mx/4.5.2/../../../../pic32mx/lib/./proc/32MX460F512L\default_isr_vectors.o (__vector_dispatch_24)
c:/program files (x86)/microchip/xc32/v1.21/bin/../lib/gcc/pic32mx/4.5.2/../../../../pic32mx/lib\libpic32.a(vector25.o)
                              c:/program files (x86)/microchip/xc32/v1.21/bin/../lib/gcc/pic32mx/4.5.2/../../../../pic32mx/lib/./proc/32MX460F512L\default_isr_vectors.o (__vector_dispatch_25)
c:/program files (x86)/microchip/xc32/v1.21/bin/../lib/gcc/pic32mx/4.5.2/../../../../pic32mx/lib\libpic32.a(vector26.o)
                              c:/program files (x86)/microchip/xc32/v1.21/bin/../lib/gcc/pic32mx/4.5.2/../../../../pic32mx/lib/./proc/32MX460F512L\default_isr_vectors.o (__vector_dispatch_26)
c:/program files (x86)/microchip/xc32/v1.21/bin/../lib/gcc/pic32mx/4.5.2/../../../../pic32mx/lib\libpic32.a(vector27.o)
                              c:/program files (x86)/microchip/xc32/v1.21/bin/../lib/gcc/pic32mx/4.5.2/../../../../pic32mx/lib/./proc/32MX460F512L\default_isr_vectors.o (__vector_dispatch_27)
c:/program files (x86)/microchip/xc32/v1.21/bin/../lib/gcc/pic32mx/4.5.2/../../../../pic32mx/lib\libpic32.a(vector28.o)
                              c:/program files (x86)/microchip/xc32/v1.21/bin/../lib/gcc/pic32mx/4.5.2/../../../../pic32mx/lib/./proc/32MX460F512L\default_isr_vectors.o (__vector_dispatch_28)
c:/program files (x86)/microchip/xc32/v1.21/bin/../lib/gcc/pic32mx/4.5.2/../../../../pic32mx/lib\libpic32.a(vector29.o)
                              c:/program files (x86)/microchip/xc32/v1.21/bin/../lib/gcc/pic32mx/4.5.2/../../../../pic32mx/lib/./proc/32MX460F512L\default_isr_vectors.o (__vector_dispatch_29)
c:/program files (x86)/microchip/xc32/v1.21/bin/../lib/gcc/pic32mx/4.5.2/../../../../pic32mx/lib\libpic32.a(vector30.o)
                              c:/program files (x86)/microchip/xc32/v1.21/bin/../lib/gcc/pic32mx/4.5.2/../../../../pic32mx/lib/./proc/32MX460F512L\default_isr_vectors.o (__vector_dispatch_30)
c:/program files (x86)/microchip/xc32/v1.21/bin/../lib/gcc/pic32mx/4.5.2/../../../../pic32mx/lib\libpic32.a(vector31.o)
                              c:/program files (x86)/microchip/xc32/v1.21/bin/../lib/gcc/pic32mx/4.5.2/../../../../pic32mx/lib/./proc/32MX460F512L\default_isr_vectors.o (__vector_dispatch_31)
c:/program files (x86)/microchip/xc32/v1.21/bin/../lib/gcc/pic32mx/4.5.2/../../../../pic32mx/lib\libpic32.a(vector32.o)
                              c:/program files (x86)/microchip/xc32/v1.21/bin/../lib/gcc/pic32mx/4.5.2/../../../../pic32mx/lib/./proc/32MX460F512L\default_isr_vectors.o (__vector_dispatch_32)
c:/program files (x86)/microchip/xc32/v1.21/bin/../lib/gcc/pic32mx/4.5.2/../../../../pic32mx/lib\libpic32.a(vector33.o)
                              c:/program files (x86)/microchip/xc32/v1.21/bin/../lib/gcc/pic32mx/4.5.2/../../../../pic32mx/lib/./proc/32MX460F512L\default_isr_vectors.o (__vector_dispatch_33)
c:/program files (x86)/microchip/xc32/v1.21/bin/../lib/gcc/pic32mx/4.5.2/../../../../pic32mx/lib\libpic32.a(vector34.o)
                              c:/program files (x86)/microchip/xc32/v1.21/bin/../lib/gcc/pic32mx/4.5.2/../../../../pic32mx/lib/./proc/32MX460F512L\default_isr_vectors.o (__vector_dispatch_34)
c:/program files (x86)/microchip/xc32/v1.21/bin/../lib/gcc/pic32mx/4.5.2/../../../../pic32mx/lib\libpic32.a(vector35.o)
                              c:/program files (x86)/microchip/xc32/v1.21/bin/../lib/gcc/pic32mx/4.5.2/../../../../pic32mx/lib/./proc/32MX460F512L\default_isr_vectors.o (__vector_dispatch_35)
c:/program files (x86)/microchip/xc32/v1.21/bin/../lib/gcc/pic32mx/4.5.2/../../../../pic32mx/lib\libpic32.a(vector36.o)
                              c:/program files (x86)/microchip/xc32/v1.21/bin/../lib/gcc/pic32mx/4.5.2/../../../../pic32mx/lib/./proc/32MX460F512L\default_isr_vectors.o (__vector_dispatch_36)
c:/program files (x86)/microchip/xc32/v1.21/bin/../lib/gcc/pic32mx/4.5.2/../../../../pic32mx/lib\libpic32.a(vector37.o)
                              c:/program files (x86)/microchip/xc32/v1.21/bin/../lib/gcc/pic32mx/4.5.2/../../../../pic32mx/lib/./proc/32MX460F512L\default_isr_vectors.o (__vector_dispatch_37)
c:/program files (x86)/microchip/xc32/v1.21/bin/../lib/gcc/pic32mx/4.5.2/../../../../pic32mx/lib\libpic32.a(vector38.o)
                              c:/program files (x86)/microchip/xc32/v1.21/bin/../lib/gcc/pic32mx/4.5.2/../../../../pic32mx/lib/./proc/32MX460F512L\default_isr_vectors.o (__vector_dispatch_38)
c:/program files (x86)/microchip/xc32/v1.21/bin/../lib/gcc/pic32mx/4.5.2/../../../../pic32mx/lib\libpic32.a(vector39.o)
                              c:/program files (x86)/microchip/xc32/v1.21/bin/../lib/gcc/pic32mx/4.5.2/../../../../pic32mx/lib/./proc/32MX460F512L\default_isr_vectors.o (__vector_dispatch_39)
c:/program files (x86)/microchip/xc32/v1.21/bin/../lib/gcc/pic32mx/4.5.2/../../../../pic32mx/lib\libpic32.a(vector40.o)
                              c:/program files (x86)/microchip/xc32/v1.21/bin/../lib/gcc/pic32mx/4.5.2/../../../../pic32mx/lib/./proc/32MX460F512L\default_isr_vectors.o (__vector_dispatch_40)
c:/program files (x86)/microchip/xc32/v1.21/bin/../lib/gcc/pic32mx/4.5.2/../../../../pic32mx/lib\libpic32.a(vector41.o)
                              c:/program files (x86)/microchip/xc32/v1.21/bin/../lib/gcc/pic32mx/4.5.2/../../../../pic32mx/lib/./proc/32MX460F512L\default_isr_vectors.o (__vector_dispatch_41)
c:/program files (x86)/microchip/xc32/v1.21/bin/../lib/gcc/pic32mx/4.5.2/../../../../pic32mx/lib\libpic32.a(vector42.o)
                              c:/program files (x86)/microchip/xc32/v1.21/bin/../lib/gcc/pic32mx/4.5.2/../../../../pic32mx/lib/./proc/32MX460F512L\default_isr_vectors.o (__vector_dispatch_42)
c:/program files (x86)/microchip/xc32/v1.21/bin/../lib/gcc/pic32mx/4.5.2/../../../../pic32mx/lib\libpic32.a(vector43.o)
                              c:/program files (x86)/microchip/xc32/v1.21/bin/../lib/gcc/pic32mx/4.5.2/../../../../pic32mx/lib/./proc/32MX460F512L\default_isr_vectors.o (__vector_dispatch_43)
c:/program files (x86)/microchip/xc32/v1.21/bin/../lib/gcc/pic32mx/4.5.2/../../../../pic32mx/lib\libpic32.a(vector44.o)
                              c:/program files (x86)/microchip/xc32/v1.21/bin/../lib/gcc/pic32mx/4.5.2/../../../../pic32mx/lib/./proc/32MX460F512L\default_isr_vectors.o (__vector_dispatch_44)
c:/program files (x86)/microchip/xc32/v1.21/bin/../lib/gcc/pic32mx/4.5.2/../../../../pic32mx/lib\libpic32.a(vector45.o)
                              c:/program files (x86)/microchip/xc32/v1.21/bin/../lib/gcc/pic32mx/4.5.2/../../../../pic32mx/lib/./proc/32MX460F512L\default_isr_vectors.o (__vector_dispatch_45)
c:/program files (x86)/microchip/xc32/v1.21/bin/../lib/gcc/pic32mx/4.5.2/../../../../pic32mx/lib\libpic32.a(vector46.o)
                              c:/program files (x86)/microchip/xc32/v1.21/bin/../lib/gcc/pic32mx/4.5.2/../../../../pic32mx/lib/./proc/32MX460F512L\default_isr_vectors.o (__vector_dispatch_46)
c:/program files (x86)/microchip/xc32/v1.21/bin/../lib/gcc/pic32mx/4.5.2/../../../../pic32mx/lib\libpic32.a(vector47.o)
                              c:/program files (x86)/microchip/xc32/v1.21/bin/../lib/gcc/pic32mx/4.5.2/../../../../pic32mx/lib/./proc/32MX460F512L\default_isr_vectors.o (__vector_dispatch_47)
c:/program files (x86)/microchip/xc32/v1.21/bin/../lib/gcc/pic32mx/4.5.2/../../../../pic32mx/lib\libpic32.a(vector48.o)
                              c:/program files (x86)/microchip/xc32/v1.21/bin/../lib/gcc/pic32mx/4.5.2/../../../../pic32mx/lib/./proc/32MX460F512L\default_isr_vectors.o (__vector_dispatch_48)
c:/program files (x86)/microchip/xc32/v1.21/bin/../lib/gcc/pic32mx/4.5.2/../../../../pic32mx/lib\libpic32.a(vector49.o)
                              c:/program files (x86)/microchip/xc32/v1.21/bin/../lib/gcc/pic32mx/4.5.2/../../../../pic32mx/lib/./proc/32MX460F512L\default_isr_vectors.o (__vector_dispatch_49)
c:/program files (x86)/microchip/xc32/v1.21/bin/../lib/gcc/pic32mx/4.5.2/../../../../pic32mx/lib\libpic32.a(vector50.o)
                              c:/program files (x86)/microchip/xc32/v1.21/bin/../lib/gcc/pic32mx/4.5.2/../../../../pic32mx/lib/./proc/32MX460F512L\default_isr_vectors.o (__vector_dispatch_50)
c:/program files (x86)/microchip/xc32/v1.21/bin/../lib/gcc/pic32mx/4.5.2/../../../../pic32mx/lib\libpic32.a(vector51.o)
                              c:/program files (x86)/microchip/xc32/v1.21/bin/../lib/gcc/pic32mx/4.5.2/../../../../pic32mx/lib/./proc/32MX460F512L\default_isr_vectors.o (__vector_dispatch_51)
c:/program files (x86)/microchip/xc32/v1.21/bin/../lib/gcc/pic32mx/4.5.2/../../../../pic32mx/lib\libpic32.a(vector52.o)
                              c:/program files (x86)/microchip/xc32/v1.21/bin/../lib/gcc/pic32mx/4.5.2/../../../../pic32mx/lib/./proc/32MX460F512L\default_isr_vectors.o (__vector_dispatch_52)
c:/program files (x86)/microchip/xc32/v1.21/bin/../lib/gcc/pic32mx/4.5.2/../../../../pic32mx/lib\libpic32.a(vector53.o)
                              c:/program files (x86)/microchip/xc32/v1.21/bin/../lib/gcc/pic32mx/4.5.2/../../../../pic32mx/lib/./proc/32MX460F512L\default_isr_vectors.o (__vector_dispatch_53)
c:/program files (x86)/microchip/xc32/v1.21/bin/../lib/gcc/pic32mx/4.5.2/../../../../pic32mx/lib\libpic32.a(vector54.o)
                              c:/program files (x86)/microchip/xc32/v1.21/bin/../lib/gcc/pic32mx/4.5.2/../../../../pic32mx/lib/./proc/32MX460F512L\default_isr_vectors.o (__vector_dispatch_54)
c:/program files (x86)/microchip/xc32/v1.21/bin/../lib/gcc/pic32mx/4.5.2/../../../../pic32mx/lib\libpic32.a(vector55.o)
                              c:/program files (x86)/microchip/xc32/v1.21/bin/../lib/gcc/pic32mx/4.5.2/../../../../pic32mx/lib/./proc/32MX460F512L\default_isr_vectors.o (__vector_dispatch_55)
c:/program files (x86)/microchip/xc32/v1.21/bin/../lib/gcc/pic32mx/4.5.2/../../../../pic32mx/lib\libpic32.a(vector56.o)
                              c:/program files (x86)/microchip/xc32/v1.21/bin/../lib/gcc/pic32mx/4.5.2/../../../../pic32mx/lib/./proc/32MX460F512L\default_isr_vectors.o (__vector_dispatch_56)
c:/program files (x86)/microchip/xc32/v1.21/bin/../lib/gcc/pic32mx/4.5.2/../../../../pic32mx/lib\libpic32.a(vector57.o)
                              c:/program files (x86)/microchip/xc32/v1.21/bin/../lib/gcc/pic32mx/4.5.2/../../../../pic32mx/lib/./proc/32MX460F512L\default_isr_vectors.o (__vector_dispatch_57)
c:/program files (x86)/microchip/xc32/v1.21/bin/../lib/gcc/pic32mx/4.5.2/../../../../pic32mx/lib\libpic32.a(vector58.o)
                              c:/program files (x86)/microchip/xc32/v1.21/bin/../lib/gcc/pic32mx/4.5.2/../../../../pic32mx/lib/./proc/32MX460F512L\default_isr_vectors.o (__vector_dispatch_58)
c:/program files (x86)/microchip/xc32/v1.21/bin/../lib/gcc/pic32mx/4.5.2/../../../../pic32mx/lib\libpic32.a(vector59.o)
                              c:/program files (x86)/microchip/xc32/v1.21/bin/../lib/gcc/pic32mx/4.5.2/../../../../pic32mx/lib/./proc/32MX460F512L\default_isr_vectors.o (__vector_dispatch_59)
c:/program files (x86)/microchip/xc32/v1.21/bin/../lib/gcc/pic32mx/4.5.2/../../../../pic32mx/lib\libpic32.a(vector60.o)
                              c:/program files (x86)/microchip/xc32/v1.21/bin/../lib/gcc/pic32mx/4.5.2/../../../../pic32mx/lib/./proc/32MX460F512L\default_isr_vectors.o (__vector_dispatch_60)
c:/program files (x86)/microchip/xc32/v1.21/bin/../lib/gcc/pic32mx/4.5.2/../../../../pic32mx/lib\libpic32.a(vector61.o)
                              c:/program files (x86)/microchip/xc32/v1.21/bin/../lib/gcc/pic32mx/4.5.2/../../../../pic32mx/lib/./proc/32MX460F512L\default_isr_vectors.o (__vector_dispatch_61)
c:/program files (x86)/microchip/xc32/v1.21/bin/../lib/gcc/pic32mx/4.5.2/../../../../pic32mx/lib\libpic32.a(vector62.o)
                              c:/program files (x86)/microchip/xc32/v1.21/bin/../lib/gcc/pic32mx/4.5.2/../../../../pic32mx/lib/./proc/32MX460F512L\default_isr_vectors.o (__vector_dispatch_62)
c:/program files (x86)/microchip/xc32/v1.21/bin/../lib/gcc/pic32mx/4.5.2/../../../../pic32mx/lib\libpic32.a(vector63.o)
                              c:/program files (x86)/microchip/xc32/v1.21/bin/../lib/gcc/pic32mx/4.5.2/../../../../pic32mx/lib/./proc/32MX460F512L\default_isr_vectors.o (__vector_dispatch_63)
c:/program files (x86)/microchip/xc32/v1.21/bin/../lib/gcc/pic32mx/4.5.2/../../../../pic32mx/lib\libpic32.a(defaultinterrupt.o)
                              c:/program files (x86)/microchip/xc32/v1.21/bin/../lib/gcc/pic32mx/4.5.2/../../../../pic32mx/lib\libpic32.a(vector0.o) (_DefaultInterrupt)
c:/program files (x86)/microchip/xc32/v1.21/bin/../lib/gcc/pic32mx/4.5.2/../../../../pic32mx/lib\libm.a(w_sqrtf.o)
                              build/C32_PIC32MX460F512L/production/graphics/RoundDial.o (sqrtf)
c:/program files (x86)/microchip/xc32/v1.21/bin/../lib/gcc/pic32mx/4.5.2/../../../../pic32mx/lib\libm.a(fp32.o)
                              build/C32_PIC32MX460F512L/production/graphics/Meter.o (fpmul)
c:/program files (x86)/microchip/xc32/v1.21/bin/../lib/gcc/pic32mx/4.5.2/../../../../pic32mx/lib\libm.a(fpcos32.o)
                              build/C32_PIC32MX460F512L/production/graphics/Meter.o (cosf)
c:/program files (x86)/microchip/xc32/v1.21/bin/../lib/gcc/pic32mx/4.5.2/../../../../pic32mx/lib\libm.a(fpsin32.o)
                              build/C32_PIC32MX460F512L/production/graphics/Meter.o (sinf)
c:/program files (x86)/microchip/xc32/v1.21/bin/../lib/gcc/pic32mx/4.5.2/../../../../pic32mx/lib\libm.a(fpreduct32.o)
                              c:/program files (x86)/microchip/xc32/v1.21/bin/../lib/gcc/pic32mx/4.5.2/../../../../pic32mx/lib\libm.a(fpcos32.o) (fpreduct)
c:/program files (x86)/microchip/xc32/v1.21/bin/../lib/gcc/pic32mx/4.5.2/../../../../pic32mx/lib\libm.a(sincof32.o)
                              c:/program files (x86)/microchip/xc32/v1.21/bin/../lib/gcc/pic32mx/4.5.2/../../../../pic32mx/lib\libm.a(fpcos32.o) (_sincof)
c:/program files (x86)/microchip/xc32/v1.21/bin/../lib/gcc/pic32mx/4.5.2/../../../../pic32mx/lib\libm.a(s_lib_ver.o)
                              c:/program files (x86)/microchip/xc32/v1.21/bin/../lib/gcc/pic32mx/4.5.2/../../../../pic32mx/lib\libm.a(w_sqrtf.o) (math_errhandling)
c:/program files (x86)/microchip/xc32/v1.21/bin/../lib/gcc/pic32mx/4.5.2/../../../../pic32mx/lib\libm.a(fpsqrt32.o)
                              c:/program files (x86)/microchip/xc32/v1.21/bin/../lib/gcc/pic32mx/4.5.2/../../../../pic32mx/lib\libm.a(w_sqrtf.o) (__mchp_sqrtf)
c:/program files (x86)/microchip/xc32/v1.21/bin/../lib/gcc/pic32mx/4.5.2/../../../../pic32mx/lib\libpic32.a(errno.o)
                              c:/program files (x86)/microchip/xc32/v1.21/bin/../lib/gcc/pic32mx/4.5.2/../../../../pic32mx/lib\libm.a(w_sqrtf.o) (errno)
c:/program files (x86)/microchip/xc32/v1.21/bin/../lib/gcc/pic32mx/4.5.2/../../../../pic32mx/lib\libc.a(malloc.o)
                              build/C32_PIC32MX460F512L/production/graphics/Button.o (malloc)
c:/program files (x86)/microchip/xc32/v1.21/bin/../lib/gcc/pic32mx/4.5.2/../../../../pic32mx/lib\libpic32.a(sbrk.o)
                              c:/program files (x86)/microchip/xc32/v1.21/bin/../lib/gcc/pic32mx/4.5.2/../../../../pic32mx/lib\libc.a(malloc.o) (sbrk)
c:/program files (x86)/microchip/xc32/v1.21/bin/../lib/gcc/pic32mx/4.5.2/../../../../pic32mx/lib\libpic32.a(memset.o)
                              c:/program files (x86)/microchip/xc32/v1.21/bin/../lib/gcc/pic32mx/4.5.2/../../../../pic32mx/lib\libpic32.a(sbrk.o) (memset)

Allocating common symbols
Common symbol       size              file

_cursorY            0x2               build/C32_PIC32MX460F512L/production/graphics/Primitive.o
pProgressBar        0x4               build/C32_PIC32MX460F512L/production/MainDemo.o
_trC                0x4               build/C32_PIC32MX460F512L/production/TouchScreenResistive.o
alt5Scheme          0x4               build/C32_PIC32MX460F512L/production/MainDemo.o
_rpnlX2             0x2               build/C32_PIC32MX460F512L/production/graphics/GOL.o
x                   0x2               build/C32_PIC32MX460F512L/production/MainDemo.o
redScheme           0x4               build/C32_PIC32MX460F512L/production/MainDemo.o
_fontOrientation    0x1               build/C32_PIC32MX460F512L/production/graphics/Primitive.o
alt3Scheme          0x4               build/C32_PIC32MX460F512L/production/MainDemo.o
navScheme           0x4               build/C32_PIC32MX460F512L/production/MainDemo.o
_rpnlR              0x2               build/C32_PIC32MX460F512L/production/graphics/GOL.o
pDwnBottom          0x2               build/C32_PIC32MX460F512L/production/MainDemo.o
_rtcc_flag          0x1               build/C32_PIC32MX460F512L/production/rtcc.o
altScheme           0x4               build/C32_PIC32MX460F512L/production/MainDemo.o
_clipRgn            0x2               build/C32_PIC32MX460F512L/production/graphics/drivers/ILI9341.o
pNavList            0x4               build/C32_PIC32MX460F512L/production/MainDemo.o
_bevelDrawType      0x1               build/C32_PIC32MX460F512L/production/graphics/Primitive.o
tempBuffer          0x14              build/C32_PIC32MX460F512L/production/MainDemo.o
_cursorX            0x2               build/C32_PIC32MX460F512L/production/graphics/Primitive.o
_rpnlX1             0x2               build/C32_PIC32MX460F512L/production/graphics/GOL.o
_trB                0x4               build/C32_PIC32MX460F512L/production/TouchScreenResistive.o
greenScheme         0x4               build/C32_PIC32MX460F512L/production/MainDemo.o
_lineType           0x2               build/C32_PIC32MX460F512L/production/graphics/Primitive.o
pPicture            0x4               build/C32_PIC32MX460F512L/production/MainDemo.o
ecgBuffer           0x200             build/C32_PIC32MX460F512L/production/MainDemo.o
_clipRight          0x2               build/C32_PIC32MX460F512L/production/graphics/drivers/ILI9341.o
pGenObj             0x4               build/C32_PIC32MX460F512L/production/MainDemo.o
_trD                0x4               build/C32_PIC32MX460F512L/production/TouchScreenResistive.o
DateItemID          0x2               build/C32_PIC32MX460F512L/production/MainDemo.o
buffer              0x200             build/C32_PIC32MX460F512L/production/MainDemo.o
pSlider             0x4               build/C32_PIC32MX460F512L/production/MainDemo.o
pDwnLeft            0x2               build/C32_PIC32MX460F512L/production/MainDemo.o
_clipBottom         0x2               build/C32_PIC32MX460F512L/production/graphics/drivers/ILI9341.o
_time               0x10              build/C32_PIC32MX460F512L/production/rtcc.o
_rpnlEmbossDkColor  0x2               build/C32_PIC32MX460F512L/production/graphics/GOL.o
timeScheme          0x4               build/C32_PIC32MX460F512L/production/MainDemo.o
alt4Scheme          0x4               build/C32_PIC32MX460F512L/production/MainDemo.o
_rpnlEmbossSize     0x2               build/C32_PIC32MX460F512L/production/graphics/GOL.o
y                   0x2               build/C32_PIC32MX460F512L/production/MainDemo.o
_clipTop            0x2               build/C32_PIC32MX460F512L/production/graphics/drivers/ILI9341.o
_time_chk           0x10              build/C32_PIC32MX460F512L/production/rtcc.o
_color              0x2               build/C32_PIC32MX460F512L/production/graphics/drivers/ILI9341.o
_trA                0x4               build/C32_PIC32MX460F512L/production/TouchScreenResistive.o
prevX               0x2               build/C32_PIC32MX460F512L/production/MainDemo.o
cursorUpdate        0x2               build/C32_PIC32MX460F512L/production/MainDemo.o
_clipLeft           0x2               build/C32_PIC32MX460F512L/production/graphics/drivers/ILI9341.o
pDwnRight           0x2               build/C32_PIC32MX460F512L/production/MainDemo.o
alt2Scheme          0x4               build/C32_PIC32MX460F512L/production/MainDemo.o
_rpnlY2             0x2               build/C32_PIC32MX460F512L/production/graphics/GOL.o
_rpnlEmbossLtColor  0x2               build/C32_PIC32MX460F512L/production/graphics/GOL.o
meterScheme         0x4               build/C32_PIC32MX460F512L/production/MainDemo.o
potBuffer           0x280             build/C32_PIC32MX460F512L/production/MainDemo.o
_rpnlFaceColor      0x2               build/C32_PIC32MX460F512L/production/graphics/GOL.o
animate             0x1               build/C32_PIC32MX460F512L/production/MainDemo.o
_rpnlY1             0x2               build/C32_PIC32MX460F512L/production/graphics/GOL.o
_lineThickness      0x1               build/C32_PIC32MX460F512L/production/graphics/Primitive.o
pListSaved          0x4               build/C32_PIC32MX460F512L/production/MainDemo.o
yellowScheme        0x4               build/C32_PIC32MX460F512L/production/MainDemo.o
pDwnTop             0x2               build/C32_PIC32MX460F512L/production/MainDemo.o
currentFont         0xc               build/C32_PIC32MX460F512L/production/graphics/Primitive.o
dateTimeStr         0x1a              build/C32_PIC32MX460F512L/production/MainDemo.o
prevY               0x2               build/C32_PIC32MX460F512L/production/MainDemo.o

Microchip PIC32 Memory-Usage Report

kseg0 Program-Memory Usage
section                    address  length [bytes]      (dec)  Description
-------                 ----------  -------------------------  -----------
.text                   0x9d000020         0xa150       41296  App's exec code 
.rodata                 0x9d00a170         0x83c0       33728  Read-only const 
.text                   0x9d012530        0x1c968      117096  App's exec code 
.dinit                  0x9d02ee98          0x580        1408   
.rodata                 0x9d02f418          0x528        1320  Read-only const 
.text                   0x9d02f940          0x580        1408  App's exec code 
.text.malloc            0x9d02fec0          0x258         600   
.text._RtccSetTimeAndDa 0x9d030118          0x23c         572   
.text.RtccInit          0x9d030354          0x1ac         428   
.rodata                 0x9d030500          0x1a0         416  Read-only const 
.text._sbrk_init        0x9d0306a0          0x194         404   
.text                   0x9d030834          0x168         360  App's exec code 
.text.realloc           0x9d03099c          0x134         308   
.text                   0x9d030ad0          0x22c         556  App's exec code 
.text._RtccWaitClockOff 0x9d030cfc          0x108         264   
.text                   0x9d030e04          0x20c         524  App's exec code 
.text.general_exception 0x9d031010           0xd0         208   
.rodata                 0x9d0310e0           0xc4         196  Read-only const 
.text._sbrk             0x9d0311a4           0xc4         196   
.rodata                 0x9d031268           0xb6         182  Read-only const 
.text                   0x9d031320           0xa8         168  App's exec code 
.text.INTEnable         0x9d0313c8           0x50          80   
.text.sqrtf             0x9d031418           0x50          80   
.text.sbrk              0x9d031468           0x50          80   
.text                   0x9d0314b8           0x48          72  App's exec code 
.text._DefaultInterrupt 0x9d031500           0x48          72   
.text                   0x9d031548           0x38          56  App's exec code 
.text.INTSetVectorPrior 0x9d031580           0x38          56   
.text.INTSetVectorSubPr 0x9d0315b8           0x38          56   
.rodata                 0x9d0315f0           0x34          52  Read-only const 
.text.INTEnableSystemMu 0x9d031624           0x34          52   
.text.INTGetVectorPrior 0x9d031658           0x2c          44   
.text.INTGetVectorSubPr 0x9d031684           0x2c          44   
.text._stub_sbd_memlayo 0x9d0316b0           0x2c          44   
.text.INTClearFlag      0x9d0316dc           0x28          40   
.text.INTSetFlag        0x9d031704           0x28          40   
.text.INTGetFlag        0x9d03172c           0x28          40   
.text.INTGetEnable      0x9d031754           0x28          40   
.text.RtccSetDate       0x9d03177c           0x24          36   
.text.RtccSetTime       0x9d0317a0           0x24          36   
.text                   0x9d0317c4           0x20          32  App's exec code 
.text.INTRestoreInterru 0x9d0317e4           0x1c          28   
.text.free              0x9d031800           0x1c          28   
.rodata                 0x9d03181c           0x30          48  Read-only const 
.text.CheKseg0CacheOff  0x9d03184c           0x18          24   
.text.CheKseg0CacheOn   0x9d031864           0x18          24   
.text                   0x9d03187c           0x18          24  App's exec code 
.text._RtccSetClockWait 0x9d031894           0x14          20   
.text._bootstrap_except 0x9d0318a8            0xc          12   
.rodata                 0x9d0318b4            0x8           8  Read-only const 
.text.INTDisableInterru 0x9d0318bc            0x8           8   
.text.INTEnableInterrup 0x9d0318c4            0x8           8   
.text.ReadCoreTimer     0x9d0318cc            0x8           8   
.text._on_reset         0x9d0318d4            0x8           8   
.text._on_bootstrap     0x9d0318dc            0x8           8   
.text.getpagesize       0x9d0318e4            0x8           8   
      Total kseg0_program_mem used  :     0x318ca      202954  38.7% of 0x80000

kseg0 Boot-Memory Usage
section                    address  length [bytes]      (dec)  Description
-------                 ----------  -------------------------  -----------
         Total kseg0_boot_mem used  :           0           0  <1% of 0x970

Exception-Memory Usage 
section                    address  length [bytes]      (dec)  Description
-------                 ----------  -------------------------  -----------
.app_excpt              0x9fc01180           0x10          16  General-Exception 
.vector_0               0x9fc01200            0x8           8  Interrupt Vector 0 
.vector_1               0x9fc01220            0x8           8  Interrupt Vector 1 
.vector_2               0x9fc01240            0x8           8  Interrupt Vector 2 
.vector_3               0x9fc01260            0x8           8  Interrupt Vector 3 
.vector_4               0x9fc01280            0x8           8  Interrupt Vector 4 
.vector_5               0x9fc012a0            0x8           8  Interrupt Vector 5 
.vector_6               0x9fc012c0            0x8           8  Interrupt Vector 6 
.vector_7               0x9fc012e0            0x8           8  Interrupt Vector 7 
.vector_8               0x9fc01300            0x8           8  Interrupt Vector 8 
.vector_9               0x9fc01320            0x8           8  Interrupt Vector 9 
.vector_10              0x9fc01340            0x8           8  Interrupt Vector 10 
.vector_11              0x9fc01360            0x8           8  Interrupt Vector 11 
.vector_12              0x9fc01380            0x8           8  Interrupt Vector 12 
.vector_13              0x9fc013a0            0x8           8  Interrupt Vector 13 
.vector_14              0x9fc013c0            0x8           8  Interrupt Vector 14 
.vector_15              0x9fc013e0            0x8           8  Interrupt Vector 15 
.vector_16              0x9fc01400            0x8           8  Interrupt Vector 16 
.vector_17              0x9fc01420            0x8           8  Interrupt Vector 17 
.vector_18              0x9fc01440            0x8           8  Interrupt Vector 18 
.vector_19              0x9fc01460            0x8           8  Interrupt Vector 19 
.vector_20              0x9fc01480            0x8           8  Interrupt Vector 20 
.vector_21              0x9fc014a0            0x8           8  Interrupt Vector 21 
.vector_22              0x9fc014c0            0x8           8  Interrupt Vector 22 
.vector_23              0x9fc014e0            0x8           8  Interrupt Vector 23 
.vector_24              0x9fc01500            0x8           8  Interrupt Vector 24 
.vector_25              0x9fc01520            0x8           8  Interrupt Vector 25 
.vector_26              0x9fc01540            0x8           8  Interrupt Vector 26 
.vector_27              0x9fc01560            0x8           8  Interrupt Vector 27 
.vector_28              0x9fc01580            0x8           8  Interrupt Vector 28 
.vector_29              0x9fc015a0            0x8           8  Interrupt Vector 29 
.vector_30              0x9fc015c0            0x8           8  Interrupt Vector 30 
.vector_31              0x9fc015e0            0x8           8  Interrupt Vector 31 
.vector_32              0x9fc01600            0x8           8  Interrupt Vector 32 
.vector_33              0x9fc01620            0x8           8  Interrupt Vector 33 
.vector_34              0x9fc01640            0x8           8  Interrupt Vector 34 
.vector_35              0x9fc01660            0x8           8  Interrupt Vector 35 
.vector_36              0x9fc01680            0x8           8  Interrupt Vector 36 
.vector_37              0x9fc016a0            0x8           8  Interrupt Vector 37 
.vector_38              0x9fc016c0            0x8           8  Interrupt Vector 38 
.vector_39              0x9fc016e0            0x8           8  Interrupt Vector 39 
.vector_40              0x9fc01700            0x8           8  Interrupt Vector 40 
.vector_41              0x9fc01720            0x8           8  Interrupt Vector 41 
.vector_42              0x9fc01740            0x8           8  Interrupt Vector 42 
.vector_43              0x9fc01760            0x8           8  Interrupt Vector 43 
.vector_44              0x9fc01780            0x8           8  Interrupt Vector 44 
.vector_45              0x9fc017a0            0x8           8  Interrupt Vector 45 
.vector_46              0x9fc017c0            0x8           8  Interrupt Vector 46 
.vector_47              0x9fc017e0            0x8           8  Interrupt Vector 47 
.vector_48              0x9fc01800            0x8           8  Interrupt Vector 48 
.vector_49              0x9fc01820            0x8           8  Interrupt Vector 49 
.vector_50              0x9fc01840            0x8           8  Interrupt Vector 50 
.vector_51              0x9fc01860            0x8           8  Interrupt Vector 51 
.vector_52              0x9fc01880            0x8           8  Interrupt Vector 52 
.vector_53              0x9fc018a0            0x8           8  Interrupt Vector 53 
.vector_54              0x9fc018c0            0x8           8  Interrupt Vector 54 
.vector_55              0x9fc018e0            0x8           8  Interrupt Vector 55 
.vector_56              0x9fc01900            0x8           8  Interrupt Vector 56 
.vector_57              0x9fc01920            0x8           8  Interrupt Vector 57 
.vector_58              0x9fc01940            0x8           8  Interrupt Vector 58 
.vector_59              0x9fc01960            0x8           8  Interrupt Vector 59 
.vector_60              0x9fc01980            0x8           8  Interrupt Vector 60 
.vector_61              0x9fc019a0            0x8           8  Interrupt Vector 61 
.vector_62              0x9fc019c0            0x8           8  Interrupt Vector 62 
.vector_63              0x9fc019e0            0x8           8  Interrupt Vector 63 
          Total exception_mem used  :       0x210         528  12.9% of 0x1000

kseg1 Boot-Memory Usage
section                    address  length [bytes]      (dec)  Description
-------                 ----------  -------------------------  -----------
.reset                  0xbfc00000          0x1f4         500  Reset handler 
.bev_excpt              0xbfc00380           0x10          16  BEV-Exception 
         Total kseg1_boot_mem used  :       0x204         516  44.2% of 0x490
        --------------------------------------------------------------------------
         Total Program Memory used  :     0x31cde      203998  38.3% of 0x81e00
        --------------------------------------------------------------------------


kseg1 Data-Memory Usage
section                    address  length [bytes]      (dec)  Description
-------                 ----------  -------------------------  -----------
.sdata                  0xa0000000           0x5c          92  Small init data 
.sbss                   0xa000005c          0x26c         620  Small uninit data 
.bss                    0xa00002c8          0x6dc        1756  Uninitialized data 
.data                   0xa00009a4          0x2c4         708  Initialized data 
.bss                    0xa0000c68           0x4c          76  Uninitialized data 
.data                   0xa0000cb4           0x18          24  Initialized data 
.bss                    0xa0000ccc           0x30          48  Uninitialized data 
.data                   0xa0000cfc            0xc          12  Initialized data 
.data.math_errhandling_ 0xa0000d08            0x4           4   
         Total kseg1_data_mem used  :       0xd0c        3340  10.2% of 0x8000
        --------------------------------------------------------------------------
            Total Data Memory used  :       0xd0c        3340  10.2% of 0x8000
        --------------------------------------------------------------------------


Dynamic Data-Memory Reservation
section                    address  length [bytes]      (dec)  Description
-------                 ----------  -------------------------  -----------
heap                    0xa0000d10          0x7d0        2000  Reserved for heap 
stack                   0xa00014f8         0x6af8       27384  Reserved for stack 

        --------------------------------------------------------------------------

Discarded input sections

 .pdr           0x00000000       0xa0 c:/program files (x86)/microchip/xc32/v1.21/bin/../lib/gcc/pic32mx/4.5.2/../../../../pic32mx/lib/crt0.o
 .reginfo       0x00000000       0x18 build/C32_PIC32MX460F512L/production/graphics/drivers/ILI9341.o
 .pdr           0x00000000      0x200 build/C32_PIC32MX460F512L/production/graphics/drivers/ILI9341.o
 .reginfo       0x00000000       0x18 build/C32_PIC32MX460F512L/production/graphics/AnalogClock.o
 .pdr           0x00000000        0x0 build/C32_PIC32MX460F512L/production/graphics/AnalogClock.o
 .reginfo       0x00000000       0x18 build/C32_PIC32MX460F512L/production/graphics/Button.o
 .pdr           0x00000000       0xe0 build/C32_PIC32MX460F512L/production/graphics/Button.o
 .reginfo       0x00000000       0x18 build/C32_PIC32MX460F512L/production/graphics/Chart.o
 .pdr           0x00000000        0x0 build/C32_PIC32MX460F512L/production/graphics/Chart.o
 .reginfo       0x00000000       0x18 build/C32_PIC32MX460F512L/production/graphics/CheckBox.o
 .pdr           0x00000000       0xa0 build/C32_PIC32MX460F512L/production/graphics/CheckBox.o
 .reginfo       0x00000000       0x18 build/C32_PIC32MX460F512L/production/graphics/DigitalMeter.o
 .pdr           0x00000000       0xa0 build/C32_PIC32MX460F512L/production/graphics/DigitalMeter.o
 .reginfo       0x00000000       0x18 build/C32_PIC32MX460F512L/production/graphics/EditBox.o
 .pdr           0x00000000       0xe0 build/C32_PIC32MX460F512L/production/graphics/EditBox.o
 .reginfo       0x00000000       0x18 build/C32_PIC32MX460F512L/production/graphics/GOL.o
 .pdr           0x00000000      0x200 build/C32_PIC32MX460F512L/production/graphics/GOL.o
 .reginfo       0x00000000       0x18 build/C32_PIC32MX460F512L/production/graphics/GOLSchemeDefault.o
 .pdr           0x00000000        0x0 build/C32_PIC32MX460F512L/production/graphics/GOLSchemeDefault.o
 .reginfo       0x00000000       0x18 build/C32_PIC32MX460F512L/production/graphics/Grid.o
 .pdr           0x00000000        0x0 build/C32_PIC32MX460F512L/production/graphics/Grid.o
 .reginfo       0x00000000       0x18 build/C32_PIC32MX460F512L/production/graphics/GroupBox.o
 .pdr           0x00000000       0x80 build/C32_PIC32MX460F512L/production/graphics/GroupBox.o
 .reginfo       0x00000000       0x18 build/C32_PIC32MX460F512L/production/graphics/ListBox.o
 .pdr           0x00000000      0x160 build/C32_PIC32MX460F512L/production/graphics/ListBox.o
 .reginfo       0x00000000       0x18 build/C32_PIC32MX460F512L/production/graphics/Meter.o
 .pdr           0x00000000       0xc0 build/C32_PIC32MX460F512L/production/graphics/Meter.o
 .reginfo       0x00000000       0x18 build/C32_PIC32MX460F512L/production/graphics/Palette.o
 .pdr           0x00000000        0x0 build/C32_PIC32MX460F512L/production/graphics/Palette.o
 .reginfo       0x00000000       0x18 build/C32_PIC32MX460F512L/production/graphics/Picture.o
 .pdr           0x00000000       0x60 build/C32_PIC32MX460F512L/production/graphics/Picture.o
 .reginfo       0x00000000       0x18 build/C32_PIC32MX460F512L/production/graphics/Primitive.o
 .pdr           0x00000000      0x4c0 build/C32_PIC32MX460F512L/production/graphics/Primitive.o
 .reginfo       0x00000000       0x18 build/C32_PIC32MX460F512L/production/graphics/ProgressBar.o
 .pdr           0x00000000       0xc0 build/C32_PIC32MX460F512L/production/graphics/ProgressBar.o
 .reginfo       0x00000000       0x18 build/C32_PIC32MX460F512L/production/graphics/RadioButton.o
 .pdr           0x00000000       0xe0 build/C32_PIC32MX460F512L/production/graphics/RadioButton.o
 .reginfo       0x00000000       0x18 build/C32_PIC32MX460F512L/production/graphics/RoundDial.o
 .pdr           0x00000000       0xc0 build/C32_PIC32MX460F512L/production/graphics/RoundDial.o
 .reginfo       0x00000000       0x18 build/C32_PIC32MX460F512L/production/graphics/Slider.o
 .pdr           0x00000000      0x160 build/C32_PIC32MX460F512L/production/graphics/Slider.o
 .reginfo       0x00000000       0x18 build/C32_PIC32MX460F512L/production/graphics/StaticText.o
 .pdr           0x00000000       0x80 build/C32_PIC32MX460F512L/production/graphics/StaticText.o
 .reginfo       0x00000000       0x18 build/C32_PIC32MX460F512L/production/graphics/Template.o
 .pdr           0x00000000        0x0 build/C32_PIC32MX460F512L/production/graphics/Template.o
 .reginfo       0x00000000       0x18 build/C32_PIC32MX460F512L/production/graphics/TextEntry.o
 .pdr           0x00000000        0x0 build/C32_PIC32MX460F512L/production/graphics/TextEntry.o
 .reginfo       0x00000000       0x18 build/C32_PIC32MX460F512L/production/graphics/Transitions.o
 .pdr           0x00000000        0x0 build/C32_PIC32MX460F512L/production/graphics/Transitions.o
 .reginfo       0x00000000       0x18 build/C32_PIC32MX460F512L/production/graphics/Transitions_weak.o
 .pdr           0x00000000        0x0 build/C32_PIC32MX460F512L/production/graphics/Transitions_weak.o
 .reginfo       0x00000000       0x18 build/C32_PIC32MX460F512L/production/graphics/Window.o
 .pdr           0x00000000       0x80 build/C32_PIC32MX460F512L/production/graphics/Window.o
 .reginfo       0x00000000       0x18 build/C32_PIC32MX460F512L/production/configuration_bits.o
 .pdr           0x00000000        0x0 build/C32_PIC32MX460F512L/production/configuration_bits.o
 .reginfo       0x00000000       0x18 build/C32_PIC32MX460F512L/production/exceptions.o
 .pdr           0x00000000       0x20 build/C32_PIC32MX460F512L/production/exceptions.o
 .reginfo       0x00000000       0x18 build/C32_PIC32MX460F512L/production/interrupts.o
 .pdr           0x00000000        0x0 build/C32_PIC32MX460F512L/production/interrupts.o
 .reginfo       0x00000000       0x18 build/C32_PIC32MX460F512L/production/system.o
 .pdr           0x00000000        0x0 build/C32_PIC32MX460F512L/production/system.o
 .reginfo       0x00000000       0x18 build/C32_PIC32MX460F512L/production/user.o
 .pdr           0x00000000       0x20 build/C32_PIC32MX460F512L/production/user.o
 .reginfo       0x00000000       0x18 build/C32_PIC32MX460F512L/production/TimeDelay.o
 .pdr           0x00000000       0x40 build/C32_PIC32MX460F512L/production/TimeDelay.o
 .reginfo       0x00000000       0x18 build/C32_PIC32MX460F512L/production/Beep.o
 .pdr           0x00000000        0x0 build/C32_PIC32MX460F512L/production/Beep.o
 .reginfo       0x00000000       0x18 build/C32_PIC32MX460F512L/production/CustomControlDemo.o
 .pdr           0x00000000       0x80 build/C32_PIC32MX460F512L/production/CustomControlDemo.o
 .reginfo       0x00000000       0x18 build/C32_PIC32MX460F512L/production/TouchScreen.o
 .pdr           0x00000000       0xa0 build/C32_PIC32MX460F512L/production/TouchScreen.o
 .reginfo       0x00000000       0x18 build/C32_PIC32MX460F512L/production/drv_spi.o
 .pdr           0x00000000       0xa0 build/C32_PIC32MX460F512L/production/drv_spi.o
 .reginfo       0x00000000       0x18 build/C32_PIC32MX460F512L/production/rtcc.o
 .pdr           0x00000000      0x160 build/C32_PIC32MX460F512L/production/rtcc.o
 .reginfo       0x00000000       0x18 build/C32_PIC32MX460F512L/production/InternalResourceXC32.o
 .pdr           0x00000000        0x0 build/C32_PIC32MX460F512L/production/InternalResourceXC32.o
 .reginfo       0x00000000       0x18 build/C32_PIC32MX460F512L/production/cpld.o
 .pdr           0x00000000        0x0 build/C32_PIC32MX460F512L/production/cpld.o
 .reginfo       0x00000000       0x18 build/C32_PIC32MX460F512L/production/TouchScreenResistive.o
 .pdr           0x00000000      0x160 build/C32_PIC32MX460F512L/production/TouchScreenResistive.o
 .reginfo       0x00000000       0x18 build/C32_PIC32MX460F512L/production/MainDemo.o
 .pdr           0x00000000      0x780 build/C32_PIC32MX460F512L/production/MainDemo.o
 .reginfo       0x00000000       0x18 build/C32_PIC32MX460F512L/production/SST25VF016.o
 .pdr           0x00000000      0x180 build/C32_PIC32MX460F512L/production/SST25VF016.o
 .reginfo       0x00000000       0x18 c:/program files (x86)/microchip/xc32/v1.21/bin/../lib/gcc/pic32mx/4.5.2/../../../../pic32mx/lib/./proc/32MX460F512L\default_isr_vectors.o
 .pdr           0x00000000        0x0 c:/program files (x86)/microchip/xc32/v1.21/bin/../lib/gcc/pic32mx/4.5.2/../../../../pic32mx/lib/./proc/32MX460F512L\default_isr_vectors.o
 .discard       0x00000000      0x100 c:/program files (x86)/microchip/xc32/v1.21/bin/../lib/gcc/pic32mx/4.5.2/../../../../pic32mx/lib/./proc/32MX460F512L\default_isr_vectors.o
 .reginfo       0x00000000       0x18 c:/program files (x86)/microchip/xc32/v1.21/bin/../lib/gcc/pic32mx/4.5.2/../../../../pic32mx/lib/./proc/32MX460F512L\processor.o
 .pdr           0x00000000        0x0 c:/program files (x86)/microchip/xc32/v1.21/bin/../lib/gcc/pic32mx/4.5.2/../../../../pic32mx/lib/./proc/32MX460F512L\processor.o
 .reginfo       0x00000000       0x18 c:/program files (x86)/microchip/xc32/v1.21/bin/../lib/gcc/pic32mx/4.5.2/../../../../pic32mx/lib\libmchp_peripheral_32MX460F512L.a(pcache.o)
 .pdr           0x00000000       0x40 c:/program files (x86)/microchip/xc32/v1.21/bin/../lib/gcc/pic32mx/4.5.2/../../../../pic32mx/lib\libmchp_peripheral_32MX460F512L.a(pcache.o)
 .reginfo       0x00000000       0x18 c:/program files (x86)/microchip/xc32/v1.21/bin/../lib/gcc/pic32mx/4.5.2/../../../../pic32mx/lib\libmchp_peripheral_32MX460F512L.a(int_disable_interrupts_lib.o)
 .pdr           0x00000000       0x20 c:/program files (x86)/microchip/xc32/v1.21/bin/../lib/gcc/pic32mx/4.5.2/../../../../pic32mx/lib\libmchp_peripheral_32MX460F512L.a(int_disable_interrupts_lib.o)
 .reginfo       0x00000000       0x18 c:/program files (x86)/microchip/xc32/v1.21/bin/../lib/gcc/pic32mx/4.5.2/../../../../pic32mx/lib\libmchp_peripheral_32MX460F512L.a(int_restore_interrupts_lib.o)
 .pdr           0x00000000       0x20 c:/program files (x86)/microchip/xc32/v1.21/bin/../lib/gcc/pic32mx/4.5.2/../../../../pic32mx/lib\libmchp_peripheral_32MX460F512L.a(int_restore_interrupts_lib.o)
 .reginfo       0x00000000       0x18 c:/program files (x86)/microchip/xc32/v1.21/bin/../lib/gcc/pic32mx/4.5.2/../../../../pic32mx/lib\libmchp_peripheral_32MX460F512L.a(int_enable_mv_int_lib.o)
 .pdr           0x00000000       0x20 c:/program files (x86)/microchip/xc32/v1.21/bin/../lib/gcc/pic32mx/4.5.2/../../../../pic32mx/lib\libmchp_peripheral_32MX460F512L.a(int_enable_mv_int_lib.o)
 .reginfo       0x00000000       0x18 c:/program files (x86)/microchip/xc32/v1.21/bin/../lib/gcc/pic32mx/4.5.2/../../../../pic32mx/lib\libmchp_peripheral_32MX460F512L.a(rtcc_init_lib.o)
 .pdr           0x00000000       0x20 c:/program files (x86)/microchip/xc32/v1.21/bin/../lib/gcc/pic32mx/4.5.2/../../../../pic32mx/lib\libmchp_peripheral_32MX460F512L.a(rtcc_init_lib.o)
 .reginfo       0x00000000       0x18 c:/program files (x86)/microchip/xc32/v1.21/bin/../lib/gcc/pic32mx/4.5.2/../../../../pic32mx/lib\libmchp_peripheral_32MX460F512L.a(rtcc_set_date_lib.o)
 .pdr           0x00000000       0x20 c:/program files (x86)/microchip/xc32/v1.21/bin/../lib/gcc/pic32mx/4.5.2/../../../../pic32mx/lib\libmchp_peripheral_32MX460F512L.a(rtcc_set_date_lib.o)
 .reginfo       0x00000000       0x18 c:/program files (x86)/microchip/xc32/v1.21/bin/../lib/gcc/pic32mx/4.5.2/../../../../pic32mx/lib\libmchp_peripheral_32MX460F512L.a(rtcc_set_time_lib.o)
 .pdr           0x00000000       0x20 c:/program files (x86)/microchip/xc32/v1.21/bin/../lib/gcc/pic32mx/4.5.2/../../../../pic32mx/lib\libmchp_peripheral_32MX460F512L.a(rtcc_set_time_lib.o)
 .reginfo       0x00000000       0x18 c:/program files (x86)/microchip/xc32/v1.21/bin/../lib/gcc/pic32mx/4.5.2/../../../../pic32mx/lib\libmchp_peripheral_32MX460F512L.a(int_enable_interrupts_lib.o)
 .pdr           0x00000000       0x20 c:/program files (x86)/microchip/xc32/v1.21/bin/../lib/gcc/pic32mx/4.5.2/../../../../pic32mx/lib\libmchp_peripheral_32MX460F512L.a(int_enable_interrupts_lib.o)
 .reginfo       0x00000000       0x18 c:/program files (x86)/microchip/xc32/v1.21/bin/../lib/gcc/pic32mx/4.5.2/../../../../pic32mx/lib\libmchp_peripheral_32MX460F512L.a(int_tbl_lib.o)
 .pdr           0x00000000      0x120 c:/program files (x86)/microchip/xc32/v1.21/bin/../lib/gcc/pic32mx/4.5.2/../../../../pic32mx/lib\libmchp_peripheral_32MX460F512L.a(int_tbl_lib.o)
 .reginfo       0x00000000       0x18 c:/program files (x86)/microchip/xc32/v1.21/bin/../lib/gcc/pic32mx/4.5.2/../../../../pic32mx/lib\libmchp_peripheral_32MX460F512L.a(_rtcc_set_time_and_date_lib.o)
 .pdr           0x00000000       0x20 c:/program files (x86)/microchip/xc32/v1.21/bin/../lib/gcc/pic32mx/4.5.2/../../../../pic32mx/lib\libmchp_peripheral_32MX460F512L.a(_rtcc_set_time_and_date_lib.o)
 .reginfo       0x00000000       0x18 c:/program files (x86)/microchip/xc32/v1.21/bin/../lib/gcc/pic32mx/4.5.2/../../../../pic32mx/lib\libmchp_peripheral_32MX460F512L.a(_rtcc_wait_clock_off_lib.o)
 .pdr           0x00000000       0x40 c:/program files (x86)/microchip/xc32/v1.21/bin/../lib/gcc/pic32mx/4.5.2/../../../../pic32mx/lib\libmchp_peripheral_32MX460F512L.a(_rtcc_wait_clock_off_lib.o)
 .reginfo       0x00000000       0x18 c:/program files (x86)/microchip/xc32/v1.21/bin/../lib/gcc/pic32mx/4.5.2/../../../../pic32mx/lib\libmchp_peripheral_32MX460F512L.a(read_core_timer_lib.o)
 .pdr           0x00000000       0x20 c:/program files (x86)/microchip/xc32/v1.21/bin/../lib/gcc/pic32mx/4.5.2/../../../../pic32mx/lib\libmchp_peripheral_32MX460F512L.a(read_core_timer_lib.o)
 .reginfo       0x00000000       0x18 c:/program files (x86)/microchip/xc32/v1.21/bin/../lib/gcc/pic32mx/4.5.2/../../../../pic32mx/lib\libpic32.a(memcpy.o)
 .pdr           0x00000000       0x20 c:/program files (x86)/microchip/xc32/v1.21/bin/../lib/gcc/pic32mx/4.5.2/../../../../pic32mx/lib\libpic32.a(memcpy.o)
 .reginfo       0x00000000       0x18 c:/program files (x86)/microchip/xc32/v1.21/bin/../lib/gcc/pic32mx/4.5.2/../../../../pic32mx/lib\libpic32.a(default-bootstrap-exception-handler.o)
 .pdr           0x00000000       0x20 c:/program files (x86)/microchip/xc32/v1.21/bin/../lib/gcc/pic32mx/4.5.2/../../../../pic32mx/lib\libpic32.a(default-bootstrap-exception-handler.o)
 .reginfo       0x00000000       0x18 c:/program files (x86)/microchip/xc32/v1.21/bin/../lib/gcc/pic32mx/4.5.2/../../../../pic32mx/lib\libpic32.a(default-on-reset.o)
 .pdr           0x00000000       0x20 c:/program files (x86)/microchip/xc32/v1.21/bin/../lib/gcc/pic32mx/4.5.2/../../../../pic32mx/lib\libpic32.a(default-on-reset.o)
 .reginfo       0x00000000       0x18 c:/program files (x86)/microchip/xc32/v1.21/bin/../lib/gcc/pic32mx/4.5.2/../../../../pic32mx/lib\libpic32.a(default-on-bootstrap.o)
 .pdr           0x00000000       0x20 c:/program files (x86)/microchip/xc32/v1.21/bin/../lib/gcc/pic32mx/4.5.2/../../../../pic32mx/lib\libpic32.a(default-on-bootstrap.o)
 .reginfo       0x00000000       0x18 c:/program files (x86)/microchip/xc32/v1.21/bin/../lib/gcc/pic32mx/4.5.2/../../../../pic32mx/lib\libpic32.a(default-nmi-handler.o)
 .pdr           0x00000000       0x20 c:/program files (x86)/microchip/xc32/v1.21/bin/../lib/gcc/pic32mx/4.5.2/../../../../pic32mx/lib\libpic32.a(default-nmi-handler.o)
 .reginfo       0x00000000       0x18 c:/program files (x86)/microchip/xc32/v1.21/bin/../lib/gcc/pic32mx/4.5.2/../../../../pic32mx/lib\libpic32.a(general-exception.o)
 .pdr           0x00000000       0x20 c:/program files (x86)/microchip/xc32/v1.21/bin/../lib/gcc/pic32mx/4.5.2/../../../../pic32mx/lib\libpic32.a(general-exception.o)
 .reginfo       0x00000000       0x18 c:/program files (x86)/microchip/xc32/v1.21/bin/../lib/gcc/pic32mx/4.5.2/../../../../pic32mx/lib\libpic32.a(vector0.o)
 .pdr           0x00000000       0x20 c:/program files (x86)/microchip/xc32/v1.21/bin/../lib/gcc/pic32mx/4.5.2/../../../../pic32mx/lib\libpic32.a(vector0.o)
 .reginfo       0x00000000       0x18 c:/program files (x86)/microchip/xc32/v1.21/bin/../lib/gcc/pic32mx/4.5.2/../../../../pic32mx/lib\libpic32.a(vector1.o)
 .pdr           0x00000000       0x20 c:/program files (x86)/microchip/xc32/v1.21/bin/../lib/gcc/pic32mx/4.5.2/../../../../pic32mx/lib\libpic32.a(vector1.o)
 .reginfo       0x00000000       0x18 c:/program files (x86)/microchip/xc32/v1.21/bin/../lib/gcc/pic32mx/4.5.2/../../../../pic32mx/lib\libpic32.a(vector2.o)
 .pdr           0x00000000       0x20 c:/program files (x86)/microchip/xc32/v1.21/bin/../lib/gcc/pic32mx/4.5.2/../../../../pic32mx/lib\libpic32.a(vector2.o)
 .reginfo       0x00000000       0x18 c:/program files (x86)/microchip/xc32/v1.21/bin/../lib/gcc/pic32mx/4.5.2/../../../../pic32mx/lib\libpic32.a(vector3.o)
 .pdr           0x00000000       0x20 c:/program files (x86)/microchip/xc32/v1.21/bin/../lib/gcc/pic32mx/4.5.2/../../../../pic32mx/lib\libpic32.a(vector3.o)
 .reginfo       0x00000000       0x18 c:/program files (x86)/microchip/xc32/v1.21/bin/../lib/gcc/pic32mx/4.5.2/../../../../pic32mx/lib\libpic32.a(vector4.o)
 .pdr           0x00000000       0x20 c:/program files (x86)/microchip/xc32/v1.21/bin/../lib/gcc/pic32mx/4.5.2/../../../../pic32mx/lib\libpic32.a(vector4.o)
 .reginfo       0x00000000       0x18 c:/program files (x86)/microchip/xc32/v1.21/bin/../lib/gcc/pic32mx/4.5.2/../../../../pic32mx/lib\libpic32.a(vector5.o)
 .pdr           0x00000000       0x20 c:/program files (x86)/microchip/xc32/v1.21/bin/../lib/gcc/pic32mx/4.5.2/../../../../pic32mx/lib\libpic32.a(vector5.o)
 .reginfo       0x00000000       0x18 c:/program files (x86)/microchip/xc32/v1.21/bin/../lib/gcc/pic32mx/4.5.2/../../../../pic32mx/lib\libpic32.a(vector6.o)
 .pdr           0x00000000       0x20 c:/program files (x86)/microchip/xc32/v1.21/bin/../lib/gcc/pic32mx/4.5.2/../../../../pic32mx/lib\libpic32.a(vector6.o)
 .reginfo       0x00000000       0x18 c:/program files (x86)/microchip/xc32/v1.21/bin/../lib/gcc/pic32mx/4.5.2/../../../../pic32mx/lib\libpic32.a(vector7.o)
 .pdr           0x00000000       0x20 c:/program files (x86)/microchip/xc32/v1.21/bin/../lib/gcc/pic32mx/4.5.2/../../../../pic32mx/lib\libpic32.a(vector7.o)
 .reginfo       0x00000000       0x18 c:/program files (x86)/microchip/xc32/v1.21/bin/../lib/gcc/pic32mx/4.5.2/../../../../pic32mx/lib\libpic32.a(vector8.o)
 .pdr           0x00000000       0x20 c:/program files (x86)/microchip/xc32/v1.21/bin/../lib/gcc/pic32mx/4.5.2/../../../../pic32mx/lib\libpic32.a(vector8.o)
 .reginfo       0x00000000       0x18 c:/program files (x86)/microchip/xc32/v1.21/bin/../lib/gcc/pic32mx/4.5.2/../../../../pic32mx/lib\libpic32.a(vector9.o)
 .pdr           0x00000000       0x20 c:/program files (x86)/microchip/xc32/v1.21/bin/../lib/gcc/pic32mx/4.5.2/../../../../pic32mx/lib\libpic32.a(vector9.o)
 .reginfo       0x00000000       0x18 c:/program files (x86)/microchip/xc32/v1.21/bin/../lib/gcc/pic32mx/4.5.2/../../../../pic32mx/lib\libpic32.a(vector10.o)
 .pdr           0x00000000       0x20 c:/program files (x86)/microchip/xc32/v1.21/bin/../lib/gcc/pic32mx/4.5.2/../../../../pic32mx/lib\libpic32.a(vector10.o)
 .reginfo       0x00000000       0x18 c:/program files (x86)/microchip/xc32/v1.21/bin/../lib/gcc/pic32mx/4.5.2/../../../../pic32mx/lib\libpic32.a(vector11.o)
 .pdr           0x00000000       0x20 c:/program files (x86)/microchip/xc32/v1.21/bin/../lib/gcc/pic32mx/4.5.2/../../../../pic32mx/lib\libpic32.a(vector11.o)
 .reginfo       0x00000000       0x18 c:/program files (x86)/microchip/xc32/v1.21/bin/../lib/gcc/pic32mx/4.5.2/../../../../pic32mx/lib\libpic32.a(vector12.o)
 .pdr           0x00000000       0x20 c:/program files (x86)/microchip/xc32/v1.21/bin/../lib/gcc/pic32mx/4.5.2/../../../../pic32mx/lib\libpic32.a(vector12.o)
 .reginfo       0x00000000       0x18 c:/program files (x86)/microchip/xc32/v1.21/bin/../lib/gcc/pic32mx/4.5.2/../../../../pic32mx/lib\libpic32.a(vector13.o)
 .pdr           0x00000000       0x20 c:/program files (x86)/microchip/xc32/v1.21/bin/../lib/gcc/pic32mx/4.5.2/../../../../pic32mx/lib\libpic32.a(vector13.o)
 .reginfo       0x00000000       0x18 c:/program files (x86)/microchip/xc32/v1.21/bin/../lib/gcc/pic32mx/4.5.2/../../../../pic32mx/lib\libpic32.a(vector14.o)
 .pdr           0x00000000       0x20 c:/program files (x86)/microchip/xc32/v1.21/bin/../lib/gcc/pic32mx/4.5.2/../../../../pic32mx/lib\libpic32.a(vector14.o)
 .reginfo       0x00000000       0x18 c:/program files (x86)/microchip/xc32/v1.21/bin/../lib/gcc/pic32mx/4.5.2/../../../../pic32mx/lib\libpic32.a(vector15.o)
 .pdr           0x00000000       0x20 c:/program files (x86)/microchip/xc32/v1.21/bin/../lib/gcc/pic32mx/4.5.2/../../../../pic32mx/lib\libpic32.a(vector15.o)
 .reginfo       0x00000000       0x18 c:/program files (x86)/microchip/xc32/v1.21/bin/../lib/gcc/pic32mx/4.5.2/../../../../pic32mx/lib\libpic32.a(vector17.o)
 .pdr           0x00000000       0x20 c:/program files (x86)/microchip/xc32/v1.21/bin/../lib/gcc/pic32mx/4.5.2/../../../../pic32mx/lib\libpic32.a(vector17.o)
 .reginfo       0x00000000       0x18 c:/program files (x86)/microchip/xc32/v1.21/bin/../lib/gcc/pic32mx/4.5.2/../../../../pic32mx/lib\libpic32.a(vector18.o)
 .pdr           0x00000000       0x20 c:/program files (x86)/microchip/xc32/v1.21/bin/../lib/gcc/pic32mx/4.5.2/../../../../pic32mx/lib\libpic32.a(vector18.o)
 .reginfo       0x00000000       0x18 c:/program files (x86)/microchip/xc32/v1.21/bin/../lib/gcc/pic32mx/4.5.2/../../../../pic32mx/lib\libpic32.a(vector19.o)
 .pdr           0x00000000       0x20 c:/program files (x86)/microchip/xc32/v1.21/bin/../lib/gcc/pic32mx/4.5.2/../../../../pic32mx/lib\libpic32.a(vector19.o)
 .reginfo       0x00000000       0x18 c:/program files (x86)/microchip/xc32/v1.21/bin/../lib/gcc/pic32mx/4.5.2/../../../../pic32mx/lib\libpic32.a(vector20.o)
 .pdr           0x00000000       0x20 c:/program files (x86)/microchip/xc32/v1.21/bin/../lib/gcc/pic32mx/4.5.2/../../../../pic32mx/lib\libpic32.a(vector20.o)
 .reginfo       0x00000000       0x18 c:/program files (x86)/microchip/xc32/v1.21/bin/../lib/gcc/pic32mx/4.5.2/../../../../pic32mx/lib\libpic32.a(vector21.o)
 .pdr           0x00000000       0x20 c:/program files (x86)/microchip/xc32/v1.21/bin/../lib/gcc/pic32mx/4.5.2/../../../../pic32mx/lib\libpic32.a(vector21.o)
 .reginfo       0x00000000       0x18 c:/program files (x86)/microchip/xc32/v1.21/bin/../lib/gcc/pic32mx/4.5.2/../../../../pic32mx/lib\libpic32.a(vector22.o)
 .pdr           0x00000000       0x20 c:/program files (x86)/microchip/xc32/v1.21/bin/../lib/gcc/pic32mx/4.5.2/../../../../pic32mx/lib\libpic32.a(vector22.o)
 .reginfo       0x00000000       0x18 c:/program files (x86)/microchip/xc32/v1.21/bin/../lib/gcc/pic32mx/4.5.2/../../../../pic32mx/lib\libpic32.a(vector23.o)
 .pdr           0x00000000       0x20 c:/program files (x86)/microchip/xc32/v1.21/bin/../lib/gcc/pic32mx/4.5.2/../../../../pic32mx/lib\libpic32.a(vector23.o)
 .reginfo       0x00000000       0x18 c:/program files (x86)/microchip/xc32/v1.21/bin/../lib/gcc/pic32mx/4.5.2/../../../../pic32mx/lib\libpic32.a(vector24.o)
 .pdr           0x00000000       0x20 c:/program files (x86)/microchip/xc32/v1.21/bin/../lib/gcc/pic32mx/4.5.2/../../../../pic32mx/lib\libpic32.a(vector24.o)
 .reginfo       0x00000000       0x18 c:/program files (x86)/microchip/xc32/v1.21/bin/../lib/gcc/pic32mx/4.5.2/../../../../pic32mx/lib\libpic32.a(vector25.o)
 .pdr           0x00000000       0x20 c:/program files (x86)/microchip/xc32/v1.21/bin/../lib/gcc/pic32mx/4.5.2/../../../../pic32mx/lib\libpic32.a(vector25.o)
 .reginfo       0x00000000       0x18 c:/program files (x86)/microchip/xc32/v1.21/bin/../lib/gcc/pic32mx/4.5.2/../../../../pic32mx/lib\libpic32.a(vector26.o)
 .pdr           0x00000000       0x20 c:/program files (x86)/microchip/xc32/v1.21/bin/../lib/gcc/pic32mx/4.5.2/../../../../pic32mx/lib\libpic32.a(vector26.o)
 .reginfo       0x00000000       0x18 c:/program files (x86)/microchip/xc32/v1.21/bin/../lib/gcc/pic32mx/4.5.2/../../../../pic32mx/lib\libpic32.a(vector27.o)
 .pdr           0x00000000       0x20 c:/program files (x86)/microchip/xc32/v1.21/bin/../lib/gcc/pic32mx/4.5.2/../../../../pic32mx/lib\libpic32.a(vector27.o)
 .reginfo       0x00000000       0x18 c:/program files (x86)/microchip/xc32/v1.21/bin/../lib/gcc/pic32mx/4.5.2/../../../../pic32mx/lib\libpic32.a(vector28.o)
 .pdr           0x00000000       0x20 c:/program files (x86)/microchip/xc32/v1.21/bin/../lib/gcc/pic32mx/4.5.2/../../../../pic32mx/lib\libpic32.a(vector28.o)
 .reginfo       0x00000000       0x18 c:/program files (x86)/microchip/xc32/v1.21/bin/../lib/gcc/pic32mx/4.5.2/../../../../pic32mx/lib\libpic32.a(vector29.o)
 .pdr           0x00000000       0x20 c:/program files (x86)/microchip/xc32/v1.21/bin/../lib/gcc/pic32mx/4.5.2/../../../../pic32mx/lib\libpic32.a(vector29.o)
 .reginfo       0x00000000       0x18 c:/program files (x86)/microchip/xc32/v1.21/bin/../lib/gcc/pic32mx/4.5.2/../../../../pic32mx/lib\libpic32.a(vector30.o)
 .pdr           0x00000000       0x20 c:/program files (x86)/microchip/xc32/v1.21/bin/../lib/gcc/pic32mx/4.5.2/../../../../pic32mx/lib\libpic32.a(vector30.o)
 .reginfo       0x00000000       0x18 c:/program files (x86)/microchip/xc32/v1.21/bin/../lib/gcc/pic32mx/4.5.2/../../../../pic32mx/lib\libpic32.a(vector31.o)
 .pdr           0x00000000       0x20 c:/program files (x86)/microchip/xc32/v1.21/bin/../lib/gcc/pic32mx/4.5.2/../../../../pic32mx/lib\libpic32.a(vector31.o)
 .reginfo       0x00000000       0x18 c:/program files (x86)/microchip/xc32/v1.21/bin/../lib/gcc/pic32mx/4.5.2/../../../../pic32mx/lib\libpic32.a(vector32.o)
 .pdr           0x00000000       0x20 c:/program files (x86)/microchip/xc32/v1.21/bin/../lib/gcc/pic32mx/4.5.2/../../../../pic32mx/lib\libpic32.a(vector32.o)
 .reginfo       0x00000000       0x18 c:/program files (x86)/microchip/xc32/v1.21/bin/../lib/gcc/pic32mx/4.5.2/../../../../pic32mx/lib\libpic32.a(vector33.o)
 .pdr           0x00000000       0x20 c:/program files (x86)/microchip/xc32/v1.21/bin/../lib/gcc/pic32mx/4.5.2/../../../../pic32mx/lib\libpic32.a(vector33.o)
 .reginfo       0x00000000       0x18 c:/program files (x86)/microchip/xc32/v1.21/bin/../lib/gcc/pic32mx/4.5.2/../../../../pic32mx/lib\libpic32.a(vector34.o)
 .pdr           0x00000000       0x20 c:/program files (x86)/microchip/xc32/v1.21/bin/../lib/gcc/pic32mx/4.5.2/../../../../pic32mx/lib\libpic32.a(vector34.o)
 .reginfo       0x00000000       0x18 c:/program files (x86)/microchip/xc32/v1.21/bin/../lib/gcc/pic32mx/4.5.2/../../../../pic32mx/lib\libpic32.a(vector35.o)
 .pdr           0x00000000       0x20 c:/program files (x86)/microchip/xc32/v1.21/bin/../lib/gcc/pic32mx/4.5.2/../../../../pic32mx/lib\libpic32.a(vector35.o)
 .reginfo       0x00000000       0x18 c:/program files (x86)/microchip/xc32/v1.21/bin/../lib/gcc/pic32mx/4.5.2/../../../../pic32mx/lib\libpic32.a(vector36.o)
 .pdr           0x00000000       0x20 c:/program files (x86)/microchip/xc32/v1.21/bin/../lib/gcc/pic32mx/4.5.2/../../../../pic32mx/lib\libpic32.a(vector36.o)
 .reginfo       0x00000000       0x18 c:/program files (x86)/microchip/xc32/v1.21/bin/../lib/gcc/pic32mx/4.5.2/../../../../pic32mx/lib\libpic32.a(vector37.o)
 .pdr           0x00000000       0x20 c:/program files (x86)/microchip/xc32/v1.21/bin/../lib/gcc/pic32mx/4.5.2/../../../../pic32mx/lib\libpic32.a(vector37.o)
 .reginfo       0x00000000       0x18 c:/program files (x86)/microchip/xc32/v1.21/bin/../lib/gcc/pic32mx/4.5.2/../../../../pic32mx/lib\libpic32.a(vector38.o)
 .pdr           0x00000000       0x20 c:/program files (x86)/microchip/xc32/v1.21/bin/../lib/gcc/pic32mx/4.5.2/../../../../pic32mx/lib\libpic32.a(vector38.o)
 .reginfo       0x00000000       0x18 c:/program files (x86)/microchip/xc32/v1.21/bin/../lib/gcc/pic32mx/4.5.2/../../../../pic32mx/lib\libpic32.a(vector39.o)
 .pdr           0x00000000       0x20 c:/program files (x86)/microchip/xc32/v1.21/bin/../lib/gcc/pic32mx/4.5.2/../../../../pic32mx/lib\libpic32.a(vector39.o)
 .reginfo       0x00000000       0x18 c:/program files (x86)/microchip/xc32/v1.21/bin/../lib/gcc/pic32mx/4.5.2/../../../../pic32mx/lib\libpic32.a(vector40.o)
 .pdr           0x00000000       0x20 c:/program files (x86)/microchip/xc32/v1.21/bin/../lib/gcc/pic32mx/4.5.2/../../../../pic32mx/lib\libpic32.a(vector40.o)
 .reginfo       0x00000000       0x18 c:/program files (x86)/microchip/xc32/v1.21/bin/../lib/gcc/pic32mx/4.5.2/../../../../pic32mx/lib\libpic32.a(vector41.o)
 .pdr           0x00000000       0x20 c:/program files (x86)/microchip/xc32/v1.21/bin/../lib/gcc/pic32mx/4.5.2/../../../../pic32mx/lib\libpic32.a(vector41.o)
 .reginfo       0x00000000       0x18 c:/program files (x86)/microchip/xc32/v1.21/bin/../lib/gcc/pic32mx/4.5.2/../../../../pic32mx/lib\libpic32.a(vector42.o)
 .pdr           0x00000000       0x20 c:/program files (x86)/microchip/xc32/v1.21/bin/../lib/gcc/pic32mx/4.5.2/../../../../pic32mx/lib\libpic32.a(vector42.o)
 .reginfo       0x00000000       0x18 c:/program files (x86)/microchip/xc32/v1.21/bin/../lib/gcc/pic32mx/4.5.2/../../../../pic32mx/lib\libpic32.a(vector43.o)
 .pdr           0x00000000       0x20 c:/program files (x86)/microchip/xc32/v1.21/bin/../lib/gcc/pic32mx/4.5.2/../../../../pic32mx/lib\libpic32.a(vector43.o)
 .reginfo       0x00000000       0x18 c:/program files (x86)/microchip/xc32/v1.21/bin/../lib/gcc/pic32mx/4.5.2/../../../../pic32mx/lib\libpic32.a(vector44.o)
 .pdr           0x00000000       0x20 c:/program files (x86)/microchip/xc32/v1.21/bin/../lib/gcc/pic32mx/4.5.2/../../../../pic32mx/lib\libpic32.a(vector44.o)
 .reginfo       0x00000000       0x18 c:/program files (x86)/microchip/xc32/v1.21/bin/../lib/gcc/pic32mx/4.5.2/../../../../pic32mx/lib\libpic32.a(vector45.o)
 .pdr           0x00000000       0x20 c:/program files (x86)/microchip/xc32/v1.21/bin/../lib/gcc/pic32mx/4.5.2/../../../../pic32mx/lib\libpic32.a(vector45.o)
 .reginfo       0x00000000       0x18 c:/program files (x86)/microchip/xc32/v1.21/bin/../lib/gcc/pic32mx/4.5.2/../../../../pic32mx/lib\libpic32.a(vector46.o)
 .pdr           0x00000000       0x20 c:/program files (x86)/microchip/xc32/v1.21/bin/../lib/gcc/pic32mx/4.5.2/../../../../pic32mx/lib\libpic32.a(vector46.o)
 .reginfo       0x00000000       0x18 c:/program files (x86)/microchip/xc32/v1.21/bin/../lib/gcc/pic32mx/4.5.2/../../../../pic32mx/lib\libpic32.a(vector47.o)
 .pdr           0x00000000       0x20 c:/program files (x86)/microchip/xc32/v1.21/bin/../lib/gcc/pic32mx/4.5.2/../../../../pic32mx/lib\libpic32.a(vector47.o)
 .reginfo       0x00000000       0x18 c:/program files (x86)/microchip/xc32/v1.21/bin/../lib/gcc/pic32mx/4.5.2/../../../../pic32mx/lib\libpic32.a(vector48.o)
 .pdr           0x00000000       0x20 c:/program files (x86)/microchip/xc32/v1.21/bin/../lib/gcc/pic32mx/4.5.2/../../../../pic32mx/lib\libpic32.a(vector48.o)
 .reginfo       0x00000000       0x18 c:/program files (x86)/microchip/xc32/v1.21/bin/../lib/gcc/pic32mx/4.5.2/../../../../pic32mx/lib\libpic32.a(vector49.o)
 .pdr           0x00000000       0x20 c:/program files (x86)/microchip/xc32/v1.21/bin/../lib/gcc/pic32mx/4.5.2/../../../../pic32mx/lib\libpic32.a(vector49.o)
 .reginfo       0x00000000       0x18 c:/program files (x86)/microchip/xc32/v1.21/bin/../lib/gcc/pic32mx/4.5.2/../../../../pic32mx/lib\libpic32.a(vector50.o)
 .pdr           0x00000000       0x20 c:/program files (x86)/microchip/xc32/v1.21/bin/../lib/gcc/pic32mx/4.5.2/../../../../pic32mx/lib\libpic32.a(vector50.o)
 .reginfo       0x00000000       0x18 c:/program files (x86)/microchip/xc32/v1.21/bin/../lib/gcc/pic32mx/4.5.2/../../../../pic32mx/lib\libpic32.a(vector51.o)
 .pdr           0x00000000       0x20 c:/program files (x86)/microchip/xc32/v1.21/bin/../lib/gcc/pic32mx/4.5.2/../../../../pic32mx/lib\libpic32.a(vector51.o)
 .reginfo       0x00000000       0x18 c:/program files (x86)/microchip/xc32/v1.21/bin/../lib/gcc/pic32mx/4.5.2/../../../../pic32mx/lib\libpic32.a(vector52.o)
 .pdr           0x00000000       0x20 c:/program files (x86)/microchip/xc32/v1.21/bin/../lib/gcc/pic32mx/4.5.2/../../../../pic32mx/lib\libpic32.a(vector52.o)
 .reginfo       0x00000000       0x18 c:/program files (x86)/microchip/xc32/v1.21/bin/../lib/gcc/pic32mx/4.5.2/../../../../pic32mx/lib\libpic32.a(vector53.o)
 .pdr           0x00000000       0x20 c:/program files (x86)/microchip/xc32/v1.21/bin/../lib/gcc/pic32mx/4.5.2/../../../../pic32mx/lib\libpic32.a(vector53.o)
 .reginfo       0x00000000       0x18 c:/program files (x86)/microchip/xc32/v1.21/bin/../lib/gcc/pic32mx/4.5.2/../../../../pic32mx/lib\libpic32.a(vector54.o)
 .pdr           0x00000000       0x20 c:/program files (x86)/microchip/xc32/v1.21/bin/../lib/gcc/pic32mx/4.5.2/../../../../pic32mx/lib\libpic32.a(vector54.o)
 .reginfo       0x00000000       0x18 c:/program files (x86)/microchip/xc32/v1.21/bin/../lib/gcc/pic32mx/4.5.2/../../../../pic32mx/lib\libpic32.a(vector55.o)
 .pdr           0x00000000       0x20 c:/program files (x86)/microchip/xc32/v1.21/bin/../lib/gcc/pic32mx/4.5.2/../../../../pic32mx/lib\libpic32.a(vector55.o)
 .reginfo       0x00000000       0x18 c:/program files (x86)/microchip/xc32/v1.21/bin/../lib/gcc/pic32mx/4.5.2/../../../../pic32mx/lib\libpic32.a(vector56.o)
 .pdr           0x00000000       0x20 c:/program files (x86)/microchip/xc32/v1.21/bin/../lib/gcc/pic32mx/4.5.2/../../../../pic32mx/lib\libpic32.a(vector56.o)
 .reginfo       0x00000000       0x18 c:/program files (x86)/microchip/xc32/v1.21/bin/../lib/gcc/pic32mx/4.5.2/../../../../pic32mx/lib\libpic32.a(vector57.o)
 .pdr           0x00000000       0x20 c:/program files (x86)/microchip/xc32/v1.21/bin/../lib/gcc/pic32mx/4.5.2/../../../../pic32mx/lib\libpic32.a(vector57.o)
 .reginfo       0x00000000       0x18 c:/program files (x86)/microchip/xc32/v1.21/bin/../lib/gcc/pic32mx/4.5.2/../../../../pic32mx/lib\libpic32.a(vector58.o)
 .pdr           0x00000000       0x20 c:/program files (x86)/microchip/xc32/v1.21/bin/../lib/gcc/pic32mx/4.5.2/../../../../pic32mx/lib\libpic32.a(vector58.o)
 .reginfo       0x00000000       0x18 c:/program files (x86)/microchip/xc32/v1.21/bin/../lib/gcc/pic32mx/4.5.2/../../../../pic32mx/lib\libpic32.a(vector59.o)
 .pdr           0x00000000       0x20 c:/program files (x86)/microchip/xc32/v1.21/bin/../lib/gcc/pic32mx/4.5.2/../../../../pic32mx/lib\libpic32.a(vector59.o)
 .reginfo       0x00000000       0x18 c:/program files (x86)/microchip/xc32/v1.21/bin/../lib/gcc/pic32mx/4.5.2/../../../../pic32mx/lib\libpic32.a(vector60.o)
 .pdr           0x00000000       0x20 c:/program files (x86)/microchip/xc32/v1.21/bin/../lib/gcc/pic32mx/4.5.2/../../../../pic32mx/lib\libpic32.a(vector60.o)
 .reginfo       0x00000000       0x18 c:/program files (x86)/microchip/xc32/v1.21/bin/../lib/gcc/pic32mx/4.5.2/../../../../pic32mx/lib\libpic32.a(vector61.o)
 .pdr           0x00000000       0x20 c:/program files (x86)/microchip/xc32/v1.21/bin/../lib/gcc/pic32mx/4.5.2/../../../../pic32mx/lib\libpic32.a(vector61.o)
 .reginfo       0x00000000       0x18 c:/program files (x86)/microchip/xc32/v1.21/bin/../lib/gcc/pic32mx/4.5.2/../../../../pic32mx/lib\libpic32.a(vector62.o)
 .pdr           0x00000000       0x20 c:/program files (x86)/microchip/xc32/v1.21/bin/../lib/gcc/pic32mx/4.5.2/../../../../pic32mx/lib\libpic32.a(vector62.o)
 .reginfo       0x00000000       0x18 c:/program files (x86)/microchip/xc32/v1.21/bin/../lib/gcc/pic32mx/4.5.2/../../../../pic32mx/lib\libpic32.a(vector63.o)
 .pdr           0x00000000       0x20 c:/program files (x86)/microchip/xc32/v1.21/bin/../lib/gcc/pic32mx/4.5.2/../../../../pic32mx/lib\libpic32.a(vector63.o)
 .reginfo       0x00000000       0x18 c:/program files (x86)/microchip/xc32/v1.21/bin/../lib/gcc/pic32mx/4.5.2/../../../../pic32mx/lib\libpic32.a(defaultinterrupt.o)
 .pdr           0x00000000       0x20 c:/program files (x86)/microchip/xc32/v1.21/bin/../lib/gcc/pic32mx/4.5.2/../../../../pic32mx/lib\libpic32.a(defaultinterrupt.o)
 .reginfo       0x00000000       0x18 c:/program files (x86)/microchip/xc32/v1.21/bin/../lib/gcc/pic32mx/4.5.2/../../../../pic32mx/lib\libm.a(w_sqrtf.o)
 .pdr           0x00000000       0x20 c:/program files (x86)/microchip/xc32/v1.21/bin/../lib/gcc/pic32mx/4.5.2/../../../../pic32mx/lib\libm.a(w_sqrtf.o)
 .reginfo       0x00000000       0x18 c:/program files (x86)/microchip/xc32/v1.21/bin/../lib/gcc/pic32mx/4.5.2/../../../../pic32mx/lib\libm.a(fp32.o)
 .pdr           0x00000000        0x0 c:/program files (x86)/microchip/xc32/v1.21/bin/../lib/gcc/pic32mx/4.5.2/../../../../pic32mx/lib\libm.a(fp32.o)
 .reginfo       0x00000000       0x18 c:/program files (x86)/microchip/xc32/v1.21/bin/../lib/gcc/pic32mx/4.5.2/../../../../pic32mx/lib\libm.a(fpcos32.o)
 .pdr           0x00000000        0x0 c:/program files (x86)/microchip/xc32/v1.21/bin/../lib/gcc/pic32mx/4.5.2/../../../../pic32mx/lib\libm.a(fpcos32.o)
 .reginfo       0x00000000       0x18 c:/program files (x86)/microchip/xc32/v1.21/bin/../lib/gcc/pic32mx/4.5.2/../../../../pic32mx/lib\libm.a(fpsin32.o)
 .pdr           0x00000000        0x0 c:/program files (x86)/microchip/xc32/v1.21/bin/../lib/gcc/pic32mx/4.5.2/../../../../pic32mx/lib\libm.a(fpsin32.o)
 .reginfo       0x00000000       0x18 c:/program files (x86)/microchip/xc32/v1.21/bin/../lib/gcc/pic32mx/4.5.2/../../../../pic32mx/lib\libm.a(fpreduct32.o)
 .pdr           0x00000000        0x0 c:/program files (x86)/microchip/xc32/v1.21/bin/../lib/gcc/pic32mx/4.5.2/../../../../pic32mx/lib\libm.a(fpreduct32.o)
 .reginfo       0x00000000       0x18 c:/program files (x86)/microchip/xc32/v1.21/bin/../lib/gcc/pic32mx/4.5.2/../../../../pic32mx/lib\libm.a(sincof32.o)
 .pdr           0x00000000        0x0 c:/program files (x86)/microchip/xc32/v1.21/bin/../lib/gcc/pic32mx/4.5.2/../../../../pic32mx/lib\libm.a(sincof32.o)
 .reginfo       0x00000000       0x18 c:/program files (x86)/microchip/xc32/v1.21/bin/../lib/gcc/pic32mx/4.5.2/../../../../pic32mx/lib\libm.a(s_lib_ver.o)
 .pdr           0x00000000        0x0 c:/program files (x86)/microchip/xc32/v1.21/bin/../lib/gcc/pic32mx/4.5.2/../../../../pic32mx/lib\libm.a(s_lib_ver.o)
 .reginfo       0x00000000       0x18 c:/program files (x86)/microchip/xc32/v1.21/bin/../lib/gcc/pic32mx/4.5.2/../../../../pic32mx/lib\libm.a(fpsqrt32.o)
 .pdr           0x00000000        0x0 c:/program files (x86)/microchip/xc32/v1.21/bin/../lib/gcc/pic32mx/4.5.2/../../../../pic32mx/lib\libm.a(fpsqrt32.o)
 .reginfo       0x00000000       0x18 c:/program files (x86)/microchip/xc32/v1.21/bin/../lib/gcc/pic32mx/4.5.2/../../../../pic32mx/lib\libpic32.a(errno.o)
 .pdr           0x00000000        0x0 c:/program files (x86)/microchip/xc32/v1.21/bin/../lib/gcc/pic32mx/4.5.2/../../../../pic32mx/lib\libpic32.a(errno.o)
 .reginfo       0x00000000       0x18 c:/program files (x86)/microchip/xc32/v1.21/bin/../lib/gcc/pic32mx/4.5.2/../../../../pic32mx/lib\libc.a(malloc.o)
 .pdr           0x00000000       0x60 c:/program files (x86)/microchip/xc32/v1.21/bin/../lib/gcc/pic32mx/4.5.2/../../../../pic32mx/lib\libc.a(malloc.o)
 .reginfo       0x00000000       0x18 c:/program files (x86)/microchip/xc32/v1.21/bin/../lib/gcc/pic32mx/4.5.2/../../../../pic32mx/lib\libpic32.a(sbrk.o)
 .pdr           0x00000000       0xa0 c:/program files (x86)/microchip/xc32/v1.21/bin/../lib/gcc/pic32mx/4.5.2/../../../../pic32mx/lib\libpic32.a(sbrk.o)
 .reginfo       0x00000000       0x18 c:/program files (x86)/microchip/xc32/v1.21/bin/../lib/gcc/pic32mx/4.5.2/../../../../pic32mx/lib\libpic32.a(memset.o)
 .pdr           0x00000000       0x20 c:/program files (x86)/microchip/xc32/v1.21/bin/../lib/gcc/pic32mx/4.5.2/../../../../pic32mx/lib\libpic32.a(memset.o)

Memory Configuration

Name             Origin             Length             Attributes
kseg0_program_mem 0x9d000000         0x00080000         xr
kseg0_boot_mem   0x9fc00490         0x00000970
exception_mem    0x9fc01000         0x00001000
kseg1_boot_mem   0xbfc00000         0x00000490
debug_exec_mem   0xbfc02000         0x00000ff0
config3          0xbfc02ff0         0x00000004
config2          0xbfc02ff4         0x00000004
config1          0xbfc02ff8         0x00000004
config0          0xbfc02ffc         0x00000004
kseg1_data_mem   0xa0000000         0x00008000         w !x
sfrs             0xbf800000         0x00100000
configsfrs       0xbfc02ff0         0x00000010
*default*        0x00000000         0xffffffff

Linker script and memory map

LOAD c:/program files (x86)/microchip/xc32/v1.21/bin/../lib/gcc/pic32mx/4.5.2/../../../../pic32mx/lib/crt0.o
LOAD build/C32_PIC32MX460F512L/production/graphics/drivers/ILI9341.o
LOAD build/C32_PIC32MX460F512L/production/graphics/AnalogClock.o
LOAD build/C32_PIC32MX460F512L/production/graphics/Button.o
LOAD build/C32_PIC32MX460F512L/production/graphics/Chart.o
LOAD build/C32_PIC32MX460F512L/production/graphics/CheckBox.o
LOAD build/C32_PIC32MX460F512L/production/graphics/DigitalMeter.o
LOAD build/C32_PIC32MX460F512L/production/graphics/EditBox.o
LOAD build/C32_PIC32MX460F512L/production/graphics/GOL.o
LOAD build/C32_PIC32MX460F512L/production/graphics/GOLSchemeDefault.o
LOAD build/C32_PIC32MX460F512L/production/graphics/Grid.o
LOAD build/C32_PIC32MX460F512L/production/graphics/GroupBox.o
LOAD build/C32_PIC32MX460F512L/production/graphics/ListBox.o
LOAD build/C32_PIC32MX460F512L/production/graphics/Meter.o
LOAD build/C32_PIC32MX460F512L/production/graphics/Palette.o
LOAD build/C32_PIC32MX460F512L/production/graphics/Picture.o
LOAD build/C32_PIC32MX460F512L/production/graphics/Primitive.o
LOAD build/C32_PIC32MX460F512L/production/graphics/ProgressBar.o
LOAD build/C32_PIC32MX460F512L/production/graphics/RadioButton.o
LOAD build/C32_PIC32MX460F512L/production/graphics/RoundDial.o
LOAD build/C32_PIC32MX460F512L/production/graphics/Slider.o
LOAD build/C32_PIC32MX460F512L/production/graphics/StaticText.o
LOAD build/C32_PIC32MX460F512L/production/graphics/Template.o
LOAD build/C32_PIC32MX460F512L/production/graphics/TextEntry.o
LOAD build/C32_PIC32MX460F512L/production/graphics/Transitions.o
LOAD build/C32_PIC32MX460F512L/production/graphics/Transitions_weak.o
LOAD build/C32_PIC32MX460F512L/production/graphics/Window.o
LOAD build/C32_PIC32MX460F512L/production/configuration_bits.o
LOAD build/C32_PIC32MX460F512L/production/exceptions.o
LOAD build/C32_PIC32MX460F512L/production/interrupts.o
LOAD build/C32_PIC32MX460F512L/production/system.o
LOAD build/C32_PIC32MX460F512L/production/user.o
LOAD build/C32_PIC32MX460F512L/production/TimeDelay.o
LOAD build/C32_PIC32MX460F512L/production/Beep.o
LOAD build/C32_PIC32MX460F512L/production/CustomControlDemo.o
LOAD build/C32_PIC32MX460F512L/production/TouchScreen.o
LOAD build/C32_PIC32MX460F512L/production/drv_spi.o
LOAD build/C32_PIC32MX460F512L/production/rtcc.o
LOAD build/C32_PIC32MX460F512L/production/InternalResourceXC32.o
LOAD build/C32_PIC32MX460F512L/production/cpld.o
LOAD build/C32_PIC32MX460F512L/production/TouchScreenResistive.o
LOAD build/C32_PIC32MX460F512L/production/MainDemo.o
LOAD build/C32_PIC32MX460F512L/production/SST25VF016.o
                0x00000001                __MPLAB_BUILD = 0x1
                0x000007d0                _min_heap_size = 0x7d0
                0x00000400                _min_stack_size = 0x400
LOAD c:/program files (x86)/microchip/xc32/v1.21/bin/../lib/gcc/pic32mx/4.5.2/../../../../pic32mx/lib/./proc/32MX460F512L\default_isr_vectors.o
                0x00000400                PROVIDE (_min_stack_size, 0x400)
LOAD c:/program files (x86)/microchip/xc32/v1.21/bin/../lib/gcc/pic32mx/4.5.2/../../../../pic32mx/lib/./proc/32MX460F512L\processor.o
START GROUP
LOAD c:/program files (x86)/microchip/xc32/v1.21/bin/../lib/gcc/pic32mx/4.5.2/../../../../pic32mx/lib\libmchp_peripheral.a
END GROUP
START GROUP
LOAD c:/program files (x86)/microchip/xc32/v1.21/bin/../lib/gcc/pic32mx/4.5.2/../../../../pic32mx/lib\libmchp_peripheral_32MX460F512L.a
END GROUP
                0x00000001                PROVIDE (_vector_spacing, 0x1)
                0x9fc01000                _ebase_address = 0x9fc01000
                0xbfc00000                _RESET_ADDR = 0xbfc00000
                0xbfc00380                _BEV_EXCPT_ADDR = 0xbfc00380
                0xbfc00480                _DBG_EXCPT_ADDR = 0xbfc00480
                0xbfc02000                _DBG_CODE_ADDR = 0xbfc02000
                0x00000ff0                _DBG_CODE_SIZE = 0xff0
                0x9fc01180                _GEN_EXCPT_ADDR = (_ebase_address + 0x180)

.config_BFC02FF0
 *(.config_BFC02FF0)

.config_BFC02FF4
                0xbfc02ff4        0x4
 *(.config_BFC02FF4)
 .config_BFC02FF4
                0xbfc02ff4        0x4 build/C32_PIC32MX460F512L/production/configuration_bits.o

.config_BFC02FF8
                0xbfc02ff8        0x4
 *(.config_BFC02FF8)
 .config_BFC02FF8
                0xbfc02ff8        0x4 build/C32_PIC32MX460F512L/production/configuration_bits.o

.config_BFC02FFC
                0xbfc02ffc        0x4
 *(.config_BFC02FFC)
 .config_BFC02FFC
                0xbfc02ffc        0x4 build/C32_PIC32MX460F512L/production/configuration_bits.o
                0xbfc02000                PROVIDE (_DBG_CODE_ADDR, 0xbfc02000)
                0x00000ff0                PROVIDE (_DBG_CODE_SIZE, 0xff0)

.reset          0xbfc00000      0x1f4
 *(.reset)
 .reset         0xbfc00000       0x10 c:/program files (x86)/microchip/xc32/v1.21/bin/../lib/gcc/pic32mx/4.5.2/../../../../pic32mx/lib/crt0.o
                0xbfc00000                _reset
 *(.reset.startup)
 .reset.startup
                0xbfc00010      0x1e4 c:/program files (x86)/microchip/xc32/v1.21/bin/../lib/gcc/pic32mx/4.5.2/../../../../pic32mx/lib/crt0.o

.bev_excpt      0xbfc00380       0x10
 *(.bev_handler)
 .bev_handler   0xbfc00380       0x10 c:/program files (x86)/microchip/xc32/v1.21/bin/../lib/gcc/pic32mx/4.5.2/../../../../pic32mx/lib/crt0.o

.dbg_excpt      0xbfc00480        0x0
                0xbfc00480                . = (. + DEFINED (_DEBUGGER)?0x8:0x0)

.dbg_code       0xbfc02000        0x0
                0xbfc02000                . = (. + DEFINED (_DEBUGGER)?_DBG_CODE_SIZE:0x0)

.app_excpt      0x9fc01180       0x10
 *(.gen_handler)
 .gen_handler   0x9fc01180       0x10 c:/program files (x86)/microchip/xc32/v1.21/bin/../lib/gcc/pic32mx/4.5.2/../../../../pic32mx/lib/crt0.o

.vector_0       0x9fc01200        0x8
 *(.vector_0)
 .vector_0      0x9fc01200        0x8 c:/program files (x86)/microchip/xc32/v1.21/bin/../lib/gcc/pic32mx/4.5.2/../../../../pic32mx/lib\libpic32.a(vector0.o)
                0x9fc01200                __vector_dispatch_0
                0x00000001                ASSERT (((_vector_spacing == 0x0) || (SIZEOF (.vector_0) <= (_vector_spacing << 0x5))), function at exception vector 0 too large)

.vector_1       0x9fc01220        0x8
 *(.vector_1)
 .vector_1      0x9fc01220        0x8 c:/program files (x86)/microchip/xc32/v1.21/bin/../lib/gcc/pic32mx/4.5.2/../../../../pic32mx/lib\libpic32.a(vector1.o)
                0x9fc01220                __vector_dispatch_1
                0x00000001                ASSERT (((_vector_spacing == 0x0) || (SIZEOF (.vector_1) <= (_vector_spacing << 0x5))), function at exception vector 1 too large)

.vector_2       0x9fc01240        0x8
 *(.vector_2)
 .vector_2      0x9fc01240        0x8 c:/program files (x86)/microchip/xc32/v1.21/bin/../lib/gcc/pic32mx/4.5.2/../../../../pic32mx/lib\libpic32.a(vector2.o)
                0x9fc01240                __vector_dispatch_2
                0x00000001                ASSERT (((_vector_spacing == 0x0) || (SIZEOF (.vector_2) <= (_vector_spacing << 0x5))), function at exception vector 2 too large)

.vector_3       0x9fc01260        0x8
 *(.vector_3)
 .vector_3      0x9fc01260        0x8 c:/program files (x86)/microchip/xc32/v1.21/bin/../lib/gcc/pic32mx/4.5.2/../../../../pic32mx/lib\libpic32.a(vector3.o)
                0x9fc01260                __vector_dispatch_3
                0x00000001                ASSERT (((_vector_spacing == 0x0) || (SIZEOF (.vector_3) <= (_vector_spacing << 0x5))), function at exception vector 3 too large)

.vector_4       0x9fc01280        0x8
 *(.vector_4)
 .vector_4      0x9fc01280        0x8 c:/program files (x86)/microchip/xc32/v1.21/bin/../lib/gcc/pic32mx/4.5.2/../../../../pic32mx/lib\libpic32.a(vector4.o)
                0x9fc01280                __vector_dispatch_4
                0x00000001                ASSERT (((_vector_spacing == 0x0) || (SIZEOF (.vector_4) <= (_vector_spacing << 0x5))), function at exception vector 4 too large)

.vector_5       0x9fc012a0        0x8
 *(.vector_5)
 .vector_5      0x9fc012a0        0x8 c:/program files (x86)/microchip/xc32/v1.21/bin/../lib/gcc/pic32mx/4.5.2/../../../../pic32mx/lib\libpic32.a(vector5.o)
                0x9fc012a0                __vector_dispatch_5
                0x00000001                ASSERT (((_vector_spacing == 0x0) || (SIZEOF (.vector_5) <= (_vector_spacing << 0x5))), function at exception vector 5 too large)

.vector_6       0x9fc012c0        0x8
 *(.vector_6)
 .vector_6      0x9fc012c0        0x8 c:/program files (x86)/microchip/xc32/v1.21/bin/../lib/gcc/pic32mx/4.5.2/../../../../pic32mx/lib\libpic32.a(vector6.o)
                0x9fc012c0                __vector_dispatch_6
                0x00000001                ASSERT (((_vector_spacing == 0x0) || (SIZEOF (.vector_6) <= (_vector_spacing << 0x5))), function at exception vector 6 too large)

.vector_7       0x9fc012e0        0x8
 *(.vector_7)
 .vector_7      0x9fc012e0        0x8 c:/program files (x86)/microchip/xc32/v1.21/bin/../lib/gcc/pic32mx/4.5.2/../../../../pic32mx/lib\libpic32.a(vector7.o)
                0x9fc012e0                __vector_dispatch_7
                0x00000001                ASSERT (((_vector_spacing == 0x0) || (SIZEOF (.vector_7) <= (_vector_spacing << 0x5))), function at exception vector 7 too large)

.vector_8       0x9fc01300        0x8
 *(.vector_8)
 .vector_8      0x9fc01300        0x8 c:/program files (x86)/microchip/xc32/v1.21/bin/../lib/gcc/pic32mx/4.5.2/../../../../pic32mx/lib\libpic32.a(vector8.o)
                0x9fc01300                __vector_dispatch_8
                0x00000001                ASSERT (((_vector_spacing == 0x0) || (SIZEOF (.vector_8) <= (_vector_spacing << 0x5))), function at exception vector 8 too large)

.vector_9       0x9fc01320        0x8
 *(.vector_9)
 .vector_9      0x9fc01320        0x8 c:/program files (x86)/microchip/xc32/v1.21/bin/../lib/gcc/pic32mx/4.5.2/../../../../pic32mx/lib\libpic32.a(vector9.o)
                0x9fc01320                __vector_dispatch_9
                0x00000001                ASSERT (((_vector_spacing == 0x0) || (SIZEOF (.vector_9) <= (_vector_spacing << 0x5))), function at exception vector 9 too large)

.vector_10      0x9fc01340        0x8
 *(.vector_10)
 .vector_10     0x9fc01340        0x8 c:/program files (x86)/microchip/xc32/v1.21/bin/../lib/gcc/pic32mx/4.5.2/../../../../pic32mx/lib\libpic32.a(vector10.o)
                0x9fc01340                __vector_dispatch_10
                0x00000001                ASSERT (((_vector_spacing == 0x0) || (SIZEOF (.vector_10) <= (_vector_spacing << 0x5))), function at exception vector 10 too large)

.vector_11      0x9fc01360        0x8
 *(.vector_11)
 .vector_11     0x9fc01360        0x8 c:/program files (x86)/microchip/xc32/v1.21/bin/../lib/gcc/pic32mx/4.5.2/../../../../pic32mx/lib\libpic32.a(vector11.o)
                0x9fc01360                __vector_dispatch_11
                0x00000001                ASSERT (((_vector_spacing == 0x0) || (SIZEOF (.vector_11) <= (_vector_spacing << 0x5))), function at exception vector 11 too large)

.vector_12      0x9fc01380        0x8
 *(.vector_12)
 .vector_12     0x9fc01380        0x8 c:/program files (x86)/microchip/xc32/v1.21/bin/../lib/gcc/pic32mx/4.5.2/../../../../pic32mx/lib\libpic32.a(vector12.o)
                0x9fc01380                __vector_dispatch_12
                0x00000001                ASSERT (((_vector_spacing == 0x0) || (SIZEOF (.vector_12) <= (_vector_spacing << 0x5))), function at exception vector 12 too large)

.vector_13      0x9fc013a0        0x8
 *(.vector_13)
 .vector_13     0x9fc013a0        0x8 c:/program files (x86)/microchip/xc32/v1.21/bin/../lib/gcc/pic32mx/4.5.2/../../../../pic32mx/lib\libpic32.a(vector13.o)
                0x9fc013a0                __vector_dispatch_13
                0x00000001                ASSERT (((_vector_spacing == 0x0) || (SIZEOF (.vector_13) <= (_vector_spacing << 0x5))), function at exception vector 13 too large)

.vector_14      0x9fc013c0        0x8
 *(.vector_14)
 .vector_14     0x9fc013c0        0x8 c:/program files (x86)/microchip/xc32/v1.21/bin/../lib/gcc/pic32mx/4.5.2/../../../../pic32mx/lib\libpic32.a(vector14.o)
                0x9fc013c0                __vector_dispatch_14
                0x00000001                ASSERT (((_vector_spacing == 0x0) || (SIZEOF (.vector_14) <= (_vector_spacing << 0x5))), function at exception vector 14 too large)

.vector_15      0x9fc013e0        0x8
 *(.vector_15)
 .vector_15     0x9fc013e0        0x8 c:/program files (x86)/microchip/xc32/v1.21/bin/../lib/gcc/pic32mx/4.5.2/../../../../pic32mx/lib\libpic32.a(vector15.o)
                0x9fc013e0                __vector_dispatch_15
                0x00000001                ASSERT (((_vector_spacing == 0x0) || (SIZEOF (.vector_15) <= (_vector_spacing << 0x5))), function at exception vector 15 too large)

.vector_16      0x9fc01400        0x8
 *(.vector_16)
 .vector_16     0x9fc01400        0x8 build/C32_PIC32MX460F512L/production/MainDemo.o
                0x9fc01400                __vector_dispatch_16
                0x00000001                ASSERT (((_vector_spacing == 0x0) || (SIZEOF (.vector_16) <= (_vector_spacing << 0x5))), function at exception vector 16 too large)

.vector_17      0x9fc01420        0x8
 *(.vector_17)
 .vector_17     0x9fc01420        0x8 c:/program files (x86)/microchip/xc32/v1.21/bin/../lib/gcc/pic32mx/4.5.2/../../../../pic32mx/lib\libpic32.a(vector17.o)
                0x9fc01420                __vector_dispatch_17
                0x00000001                ASSERT (((_vector_spacing == 0x0) || (SIZEOF (.vector_17) <= (_vector_spacing << 0x5))), function at exception vector 17 too large)

.vector_18      0x9fc01440        0x8
 *(.vector_18)
 .vector_18     0x9fc01440        0x8 c:/program files (x86)/microchip/xc32/v1.21/bin/../lib/gcc/pic32mx/4.5.2/../../../../pic32mx/lib\libpic32.a(vector18.o)
                0x9fc01440                __vector_dispatch_18
                0x00000001                ASSERT (((_vector_spacing == 0x0) || (SIZEOF (.vector_18) <= (_vector_spacing << 0x5))), function at exception vector 18 too large)

.vector_19      0x9fc01460        0x8
 *(.vector_19)
 .vector_19     0x9fc01460        0x8 c:/program files (x86)/microchip/xc32/v1.21/bin/../lib/gcc/pic32mx/4.5.2/../../../../pic32mx/lib\libpic32.a(vector19.o)
                0x9fc01460                __vector_dispatch_19
                0x00000001                ASSERT (((_vector_spacing == 0x0) || (SIZEOF (.vector_19) <= (_vector_spacing << 0x5))), function at exception vector 19 too large)

.vector_20      0x9fc01480        0x8
 *(.vector_20)
 .vector_20     0x9fc01480        0x8 c:/program files (x86)/microchip/xc32/v1.21/bin/../lib/gcc/pic32mx/4.5.2/../../../../pic32mx/lib\libpic32.a(vector20.o)
                0x9fc01480                __vector_dispatch_20
                0x00000001                ASSERT (((_vector_spacing == 0x0) || (SIZEOF (.vector_20) <= (_vector_spacing << 0x5))), function at exception vector 20 too large)

.vector_21      0x9fc014a0        0x8
 *(.vector_21)
 .vector_21     0x9fc014a0        0x8 c:/program files (x86)/microchip/xc32/v1.21/bin/../lib/gcc/pic32mx/4.5.2/../../../../pic32mx/lib\libpic32.a(vector21.o)
                0x9fc014a0                __vector_dispatch_21
                0x00000001                ASSERT (((_vector_spacing == 0x0) || (SIZEOF (.vector_21) <= (_vector_spacing << 0x5))), function at exception vector 21 too large)

.vector_22      0x9fc014c0        0x8
 *(.vector_22)
 .vector_22     0x9fc014c0        0x8 c:/program files (x86)/microchip/xc32/v1.21/bin/../lib/gcc/pic32mx/4.5.2/../../../../pic32mx/lib\libpic32.a(vector22.o)
                0x9fc014c0                __vector_dispatch_22
                0x00000001                ASSERT (((_vector_spacing == 0x0) || (SIZEOF (.vector_22) <= (_vector_spacing << 0x5))), function at exception vector 22 too large)

.vector_23      0x9fc014e0        0x8
 *(.vector_23)
 .vector_23     0x9fc014e0        0x8 c:/program files (x86)/microchip/xc32/v1.21/bin/../lib/gcc/pic32mx/4.5.2/../../../../pic32mx/lib\libpic32.a(vector23.o)
                0x9fc014e0                __vector_dispatch_23
                0x00000001                ASSERT (((_vector_spacing == 0x0) || (SIZEOF (.vector_23) <= (_vector_spacing << 0x5))), function at exception vector 23 too large)

.vector_24      0x9fc01500        0x8
 *(.vector_24)
 .vector_24     0x9fc01500        0x8 c:/program files (x86)/microchip/xc32/v1.21/bin/../lib/gcc/pic32mx/4.5.2/../../../../pic32mx/lib\libpic32.a(vector24.o)
                0x9fc01500                __vector_dispatch_24
                0x00000001                ASSERT (((_vector_spacing == 0x0) || (SIZEOF (.vector_24) <= (_vector_spacing << 0x5))), function at exception vector 24 too large)

.vector_25      0x9fc01520        0x8
 *(.vector_25)
 .vector_25     0x9fc01520        0x8 c:/program files (x86)/microchip/xc32/v1.21/bin/../lib/gcc/pic32mx/4.5.2/../../../../pic32mx/lib\libpic32.a(vector25.o)
                0x9fc01520                __vector_dispatch_25
                0x00000001                ASSERT (((_vector_spacing == 0x0) || (SIZEOF (.vector_25) <= (_vector_spacing << 0x5))), function at exception vector 25 too large)

.vector_26      0x9fc01540        0x8
 *(.vector_26)
 .vector_26     0x9fc01540        0x8 c:/program files (x86)/microchip/xc32/v1.21/bin/../lib/gcc/pic32mx/4.5.2/../../../../pic32mx/lib\libpic32.a(vector26.o)
                0x9fc01540                __vector_dispatch_26
                0x00000001                ASSERT (((_vector_spacing == 0x0) || (SIZEOF (.vector_26) <= (_vector_spacing << 0x5))), function at exception vector 26 too large)

.vector_27      0x9fc01560        0x8
 *(.vector_27)
 .vector_27     0x9fc01560        0x8 c:/program files (x86)/microchip/xc32/v1.21/bin/../lib/gcc/pic32mx/4.5.2/../../../../pic32mx/lib\libpic32.a(vector27.o)
                0x9fc01560                __vector_dispatch_27
                0x00000001                ASSERT (((_vector_spacing == 0x0) || (SIZEOF (.vector_27) <= (_vector_spacing << 0x5))), function at exception vector 27 too large)

.vector_28      0x9fc01580        0x8
 *(.vector_28)
 .vector_28     0x9fc01580        0x8 c:/program files (x86)/microchip/xc32/v1.21/bin/../lib/gcc/pic32mx/4.5.2/../../../../pic32mx/lib\libpic32.a(vector28.o)
                0x9fc01580                __vector_dispatch_28
                0x00000001                ASSERT (((_vector_spacing == 0x0) || (SIZEOF (.vector_28) <= (_vector_spacing << 0x5))), function at exception vector 28 too large)

.vector_29      0x9fc015a0        0x8
 *(.vector_29)
 .vector_29     0x9fc015a0        0x8 c:/program files (x86)/microchip/xc32/v1.21/bin/../lib/gcc/pic32mx/4.5.2/../../../../pic32mx/lib\libpic32.a(vector29.o)
                0x9fc015a0                __vector_dispatch_29
                0x00000001                ASSERT (((_vector_spacing == 0x0) || (SIZEOF (.vector_29) <= (_vector_spacing << 0x5))), function at exception vector 29 too large)

.vector_30      0x9fc015c0        0x8
 *(.vector_30)
 .vector_30     0x9fc015c0        0x8 c:/program files (x86)/microchip/xc32/v1.21/bin/../lib/gcc/pic32mx/4.5.2/../../../../pic32mx/lib\libpic32.a(vector30.o)
                0x9fc015c0                __vector_dispatch_30
                0x00000001                ASSERT (((_vector_spacing == 0x0) || (SIZEOF (.vector_30) <= (_vector_spacing << 0x5))), function at exception vector 30 too large)

.vector_31      0x9fc015e0        0x8
 *(.vector_31)
 .vector_31     0x9fc015e0        0x8 c:/program files (x86)/microchip/xc32/v1.21/bin/../lib/gcc/pic32mx/4.5.2/../../../../pic32mx/lib\libpic32.a(vector31.o)
                0x9fc015e0                __vector_dispatch_31
                0x00000001                ASSERT (((_vector_spacing == 0x0) || (SIZEOF (.vector_31) <= (_vector_spacing << 0x5))), function at exception vector 31 too large)

.vector_32      0x9fc01600        0x8
 *(.vector_32)
 .vector_32     0x9fc01600        0x8 c:/program files (x86)/microchip/xc32/v1.21/bin/../lib/gcc/pic32mx/4.5.2/../../../../pic32mx/lib\libpic32.a(vector32.o)
                0x9fc01600                __vector_dispatch_32
                0x00000001                ASSERT (((_vector_spacing == 0x0) || (SIZEOF (.vector_32) <= (_vector_spacing << 0x5))), function at exception vector 32 too large)

.vector_33      0x9fc01620        0x8
 *(.vector_33)
 .vector_33     0x9fc01620        0x8 c:/program files (x86)/microchip/xc32/v1.21/bin/../lib/gcc/pic32mx/4.5.2/../../../../pic32mx/lib\libpic32.a(vector33.o)
                0x9fc01620                __vector_dispatch_33
                0x00000001                ASSERT (((_vector_spacing == 0x0) || (SIZEOF (.vector_33) <= (_vector_spacing << 0x5))), function at exception vector 33 too large)

.vector_34      0x9fc01640        0x8
 *(.vector_34)
 .vector_34     0x9fc01640        0x8 c:/program files (x86)/microchip/xc32/v1.21/bin/../lib/gcc/pic32mx/4.5.2/../../../../pic32mx/lib\libpic32.a(vector34.o)
                0x9fc01640                __vector_dispatch_34
                0x00000001                ASSERT (((_vector_spacing == 0x0) || (SIZEOF (.vector_34) <= (_vector_spacing << 0x5))), function at exception vector 34 too large)

.vector_35      0x9fc01660        0x8
 *(.vector_35)
 .vector_35     0x9fc01660        0x8 c:/program files (x86)/microchip/xc32/v1.21/bin/../lib/gcc/pic32mx/4.5.2/../../../../pic32mx/lib\libpic32.a(vector35.o)
                0x9fc01660                __vector_dispatch_35
                0x00000001                ASSERT (((_vector_spacing == 0x0) || (SIZEOF (.vector_35) <= (_vector_spacing << 0x5))), function at exception vector 35 too large)

.vector_36      0x9fc01680        0x8
 *(.vector_36)
 .vector_36     0x9fc01680        0x8 c:/program files (x86)/microchip/xc32/v1.21/bin/../lib/gcc/pic32mx/4.5.2/../../../../pic32mx/lib\libpic32.a(vector36.o)
                0x9fc01680                __vector_dispatch_36
                0x00000001                ASSERT (((_vector_spacing == 0x0) || (SIZEOF (.vector_36) <= (_vector_spacing << 0x5))), function at exception vector 36 too large)

.vector_37      0x9fc016a0        0x8
 *(.vector_37)
 .vector_37     0x9fc016a0        0x8 c:/program files (x86)/microchip/xc32/v1.21/bin/../lib/gcc/pic32mx/4.5.2/../../../../pic32mx/lib\libpic32.a(vector37.o)
                0x9fc016a0                __vector_dispatch_37
                0x00000001                ASSERT (((_vector_spacing == 0x0) || (SIZEOF (.vector_37) <= (_vector_spacing << 0x5))), function at exception vector 37 too large)

.vector_38      0x9fc016c0        0x8
 *(.vector_38)
 .vector_38     0x9fc016c0        0x8 c:/program files (x86)/microchip/xc32/v1.21/bin/../lib/gcc/pic32mx/4.5.2/../../../../pic32mx/lib\libpic32.a(vector38.o)
                0x9fc016c0                __vector_dispatch_38
                0x00000001                ASSERT (((_vector_spacing == 0x0) || (SIZEOF (.vector_38) <= (_vector_spacing << 0x5))), function at exception vector 38 too large)

.vector_39      0x9fc016e0        0x8
 *(.vector_39)
 .vector_39     0x9fc016e0        0x8 c:/program files (x86)/microchip/xc32/v1.21/bin/../lib/gcc/pic32mx/4.5.2/../../../../pic32mx/lib\libpic32.a(vector39.o)
                0x9fc016e0                __vector_dispatch_39
                0x00000001                ASSERT (((_vector_spacing == 0x0) || (SIZEOF (.vector_39) <= (_vector_spacing << 0x5))), function at exception vector 39 too large)

.vector_40      0x9fc01700        0x8
 *(.vector_40)
 .vector_40     0x9fc01700        0x8 c:/program files (x86)/microchip/xc32/v1.21/bin/../lib/gcc/pic32mx/4.5.2/../../../../pic32mx/lib\libpic32.a(vector40.o)
                0x9fc01700                __vector_dispatch_40
                0x00000001                ASSERT (((_vector_spacing == 0x0) || (SIZEOF (.vector_40) <= (_vector_spacing << 0x5))), function at exception vector 40 too large)

.vector_41      0x9fc01720        0x8
 *(.vector_41)
 .vector_41     0x9fc01720        0x8 c:/program files (x86)/microchip/xc32/v1.21/bin/../lib/gcc/pic32mx/4.5.2/../../../../pic32mx/lib\libpic32.a(vector41.o)
                0x9fc01720                __vector_dispatch_41
                0x00000001                ASSERT (((_vector_spacing == 0x0) || (SIZEOF (.vector_41) <= (_vector_spacing << 0x5))), function at exception vector 41 too large)

.vector_42      0x9fc01740        0x8
 *(.vector_42)
 .vector_42     0x9fc01740        0x8 c:/program files (x86)/microchip/xc32/v1.21/bin/../lib/gcc/pic32mx/4.5.2/../../../../pic32mx/lib\libpic32.a(vector42.o)
                0x9fc01740                __vector_dispatch_42
                0x00000001                ASSERT (((_vector_spacing == 0x0) || (SIZEOF (.vector_42) <= (_vector_spacing << 0x5))), function at exception vector 42 too large)

.vector_43      0x9fc01760        0x8
 *(.vector_43)
 .vector_43     0x9fc01760        0x8 c:/program files (x86)/microchip/xc32/v1.21/bin/../lib/gcc/pic32mx/4.5.2/../../../../pic32mx/lib\libpic32.a(vector43.o)
                0x9fc01760                __vector_dispatch_43
                0x00000001                ASSERT (((_vector_spacing == 0x0) || (SIZEOF (.vector_43) <= (_vector_spacing << 0x5))), function at exception vector 43 too large)

.vector_44      0x9fc01780        0x8
 *(.vector_44)
 .vector_44     0x9fc01780        0x8 c:/program files (x86)/microchip/xc32/v1.21/bin/../lib/gcc/pic32mx/4.5.2/../../../../pic32mx/lib\libpic32.a(vector44.o)
                0x9fc01780                __vector_dispatch_44
                0x00000001                ASSERT (((_vector_spacing == 0x0) || (SIZEOF (.vector_44) <= (_vector_spacing << 0x5))), function at exception vector 44 too large)

.vector_45      0x9fc017a0        0x8
 *(.vector_45)
 .vector_45     0x9fc017a0        0x8 c:/program files (x86)/microchip/xc32/v1.21/bin/../lib/gcc/pic32mx/4.5.2/../../../../pic32mx/lib\libpic32.a(vector45.o)
                0x9fc017a0                __vector_dispatch_45
                0x00000001                ASSERT (((_vector_spacing == 0x0) || (SIZEOF (.vector_45) <= (_vector_spacing << 0x5))), function at exception vector 45 too large)

.vector_46      0x9fc017c0        0x8
 *(.vector_46)
 .vector_46     0x9fc017c0        0x8 c:/program files (x86)/microchip/xc32/v1.21/bin/../lib/gcc/pic32mx/4.5.2/../../../../pic32mx/lib\libpic32.a(vector46.o)
                0x9fc017c0                __vector_dispatch_46
                0x00000001                ASSERT (((_vector_spacing == 0x0) || (SIZEOF (.vector_46) <= (_vector_spacing << 0x5))), function at exception vector 46 too large)

.vector_47      0x9fc017e0        0x8
 *(.vector_47)
 .vector_47     0x9fc017e0        0x8 c:/program files (x86)/microchip/xc32/v1.21/bin/../lib/gcc/pic32mx/4.5.2/../../../../pic32mx/lib\libpic32.a(vector47.o)
                0x9fc017e0                __vector_dispatch_47
                0x00000001                ASSERT (((_vector_spacing == 0x0) || (SIZEOF (.vector_47) <= (_vector_spacing << 0x5))), function at exception vector 47 too large)

.vector_48      0x9fc01800        0x8
 *(.vector_48)
 .vector_48     0x9fc01800        0x8 c:/program files (x86)/microchip/xc32/v1.21/bin/../lib/gcc/pic32mx/4.5.2/../../../../pic32mx/lib\libpic32.a(vector48.o)
                0x9fc01800                __vector_dispatch_48
                0x00000001                ASSERT (((_vector_spacing == 0x0) || (SIZEOF (.vector_48) <= (_vector_spacing << 0x5))), function at exception vector 48 too large)

.vector_49      0x9fc01820        0x8
 *(.vector_49)
 .vector_49     0x9fc01820        0x8 c:/program files (x86)/microchip/xc32/v1.21/bin/../lib/gcc/pic32mx/4.5.2/../../../../pic32mx/lib\libpic32.a(vector49.o)
                0x9fc01820                __vector_dispatch_49
                0x00000001                ASSERT (((_vector_spacing == 0x0) || (SIZEOF (.vector_49) <= (_vector_spacing << 0x5))), function at exception vector 49 too large)

.vector_50      0x9fc01840        0x8
 *(.vector_50)
 .vector_50     0x9fc01840        0x8 c:/program files (x86)/microchip/xc32/v1.21/bin/../lib/gcc/pic32mx/4.5.2/../../../../pic32mx/lib\libpic32.a(vector50.o)
                0x9fc01840                __vector_dispatch_50
                0x00000001                ASSERT (((_vector_spacing == 0x0) || (SIZEOF (.vector_50) <= (_vector_spacing << 0x5))), function at exception vector 50 too large)

.vector_51      0x9fc01860        0x8
 *(.vector_51)
 .vector_51     0x9fc01860        0x8 c:/program files (x86)/microchip/xc32/v1.21/bin/../lib/gcc/pic32mx/4.5.2/../../../../pic32mx/lib\libpic32.a(vector51.o)
                0x9fc01860                __vector_dispatch_51
                0x00000001                ASSERT (((_vector_spacing == 0x0) || (SIZEOF (.vector_51) <= (_vector_spacing << 0x5))), function at exception vector 51 too large)

.vector_52      0x9fc01880        0x8
 *(.vector_52)
 .vector_52     0x9fc01880        0x8 c:/program files (x86)/microchip/xc32/v1.21/bin/../lib/gcc/pic32mx/4.5.2/../../../../pic32mx/lib\libpic32.a(vector52.o)
                0x9fc01880                __vector_dispatch_52
                0x00000001                ASSERT (((_vector_spacing == 0x0) || (SIZEOF (.vector_52) <= (_vector_spacing << 0x5))), function at exception vector 52 too large)

.vector_53      0x9fc018a0        0x8
 *(.vector_53)
 .vector_53     0x9fc018a0        0x8 c:/program files (x86)/microchip/xc32/v1.21/bin/../lib/gcc/pic32mx/4.5.2/../../../../pic32mx/lib\libpic32.a(vector53.o)
                0x9fc018a0                __vector_dispatch_53
                0x00000001                ASSERT (((_vector_spacing == 0x0) || (SIZEOF (.vector_53) <= (_vector_spacing << 0x5))), function at exception vector 53 too large)

.vector_54      0x9fc018c0        0x8
 *(.vector_54)
 .vector_54     0x9fc018c0        0x8 c:/program files (x86)/microchip/xc32/v1.21/bin/../lib/gcc/pic32mx/4.5.2/../../../../pic32mx/lib\libpic32.a(vector54.o)
                0x9fc018c0                __vector_dispatch_54
                0x00000001                ASSERT (((_vector_spacing == 0x0) || (SIZEOF (.vector_54) <= (_vector_spacing << 0x5))), function at exception vector 54 too large)

.vector_55      0x9fc018e0        0x8
 *(.vector_55)
 .vector_55     0x9fc018e0        0x8 c:/program files (x86)/microchip/xc32/v1.21/bin/../lib/gcc/pic32mx/4.5.2/../../../../pic32mx/lib\libpic32.a(vector55.o)
                0x9fc018e0                __vector_dispatch_55
                0x00000001                ASSERT (((_vector_spacing == 0x0) || (SIZEOF (.vector_55) <= (_vector_spacing << 0x5))), function at exception vector 55 too large)

.vector_56      0x9fc01900        0x8
 *(.vector_56)
 .vector_56     0x9fc01900        0x8 c:/program files (x86)/microchip/xc32/v1.21/bin/../lib/gcc/pic32mx/4.5.2/../../../../pic32mx/lib\libpic32.a(vector56.o)
                0x9fc01900                __vector_dispatch_56
                0x00000001                ASSERT (((_vector_spacing == 0x0) || (SIZEOF (.vector_56) <= (_vector_spacing << 0x5))), function at exception vector 56 too large)

.vector_57      0x9fc01920        0x8
 *(.vector_57)
 .vector_57     0x9fc01920        0x8 c:/program files (x86)/microchip/xc32/v1.21/bin/../lib/gcc/pic32mx/4.5.2/../../../../pic32mx/lib\libpic32.a(vector57.o)
                0x9fc01920                __vector_dispatch_57
                0x00000001                ASSERT (((_vector_spacing == 0x0) || (SIZEOF (.vector_57) <= (_vector_spacing << 0x5))), function at exception vector 57 too large)

.vector_58      0x9fc01940        0x8
 *(.vector_58)
 .vector_58     0x9fc01940        0x8 c:/program files (x86)/microchip/xc32/v1.21/bin/../lib/gcc/pic32mx/4.5.2/../../../../pic32mx/lib\libpic32.a(vector58.o)
                0x9fc01940                __vector_dispatch_58
                0x00000001                ASSERT (((_vector_spacing == 0x0) || (SIZEOF (.vector_58) <= (_vector_spacing << 0x5))), function at exception vector 58 too large)

.vector_59      0x9fc01960        0x8
 *(.vector_59)
 .vector_59     0x9fc01960        0x8 c:/program files (x86)/microchip/xc32/v1.21/bin/../lib/gcc/pic32mx/4.5.2/../../../../pic32mx/lib\libpic32.a(vector59.o)
                0x9fc01960                __vector_dispatch_59
                0x00000001                ASSERT (((_vector_spacing == 0x0) || (SIZEOF (.vector_59) <= (_vector_spacing << 0x5))), function at exception vector 59 too large)

.vector_60      0x9fc01980        0x8
 *(.vector_60)
 .vector_60     0x9fc01980        0x8 c:/program files (x86)/microchip/xc32/v1.21/bin/../lib/gcc/pic32mx/4.5.2/../../../../pic32mx/lib\libpic32.a(vector60.o)
                0x9fc01980                __vector_dispatch_60
                0x00000001                ASSERT (((_vector_spacing == 0x0) || (SIZEOF (.vector_60) <= (_vector_spacing << 0x5))), function at exception vector 60 too large)

.vector_61      0x9fc019a0        0x8
 *(.vector_61)
 .vector_61     0x9fc019a0        0x8 c:/program files (x86)/microchip/xc32/v1.21/bin/../lib/gcc/pic32mx/4.5.2/../../../../pic32mx/lib\libpic32.a(vector61.o)
                0x9fc019a0                __vector_dispatch_61
                0x00000001                ASSERT (((_vector_spacing == 0x0) || (SIZEOF (.vector_61) <= (_vector_spacing << 0x5))), function at exception vector 61 too large)

.vector_62      0x9fc019c0        0x8
 *(.vector_62)
 .vector_62     0x9fc019c0        0x8 c:/program files (x86)/microchip/xc32/v1.21/bin/../lib/gcc/pic32mx/4.5.2/../../../../pic32mx/lib\libpic32.a(vector62.o)
                0x9fc019c0                __vector_dispatch_62
                0x00000001                ASSERT (((_vector_spacing == 0x0) || (SIZEOF (.vector_62) <= (_vector_spacing << 0x5))), function at exception vector 62 too large)

.vector_63      0x9fc019e0        0x8
 *(.vector_63)
 .vector_63     0x9fc019e0        0x8 c:/program files (x86)/microchip/xc32/v1.21/bin/../lib/gcc/pic32mx/4.5.2/../../../../pic32mx/lib\libpic32.a(vector63.o)
                0x9fc019e0                __vector_dispatch_63
                0x00000001                ASSERT (((_vector_spacing == 0x0) || (SIZEOF (.vector_63) <= (_vector_spacing << 0x5))), function at exception vector 63 too large)

.startup
 *(.startup)

.text           0x9d000000        0x0
 *(.stub .gnu.linkonce.t.*)
 *(.text.*personality*)
 *(.mips16.fn.*)
 *(.mips16.call.*)
 *(.gnu.warning)
                0x9d000000                . = ALIGN (0x4)

.init           0x9d000000        0x0
 *crti.o(.init)
 *crtbegin.o(.init)
 *(EXCLUDE_FILE(*crtn.o *crtend?.o *crtend.o) .init)
 *crtend.o(.init)
 *crtn.o(.init)
                0x9d000000                . = ALIGN (0x4)

.fini           0x9d000000        0x0
 *(.fini)
                0x9d000000                . = ALIGN (0x4)

.preinit_array  0x9d000000        0x0
                0x9d000000                PROVIDE (__preinit_array_start, .)
 *(.preinit_array)
                0x9d000000                PROVIDE (__preinit_array_end, .)
                0x9d000000                . = ALIGN (0x4)

.init_array     0x9d000000        0x0
                0x9d000000                PROVIDE (__init_array_start, .)
 *(SORT(.init_array.*))
 *(.init_array)
                0x9d000000                PROVIDE (__init_array_end, .)
                0x9d000000                . = ALIGN (0x4)

.fini_array     0x9d000000        0x0
                0x9d000000                PROVIDE (__fini_array_start, .)
 *(SORT(.fini_array.*))
 *(.fini_array)
                0x9d000000                PROVIDE (__fini_array_end, .)
                0x9d000000                . = ALIGN (0x4)

.ctors          0x9d000000        0x0
 *crtbegin.o(.ctors)
 *crtbegin?.o(.ctors)
 *(EXCLUDE_FILE(*crtend?.o *crtend.o) .ctors)
 *(SORT(.ctors.*))
 *(.ctors)
                0x9d000000                . = ALIGN (0x4)

.dtors          0x9d000000        0x0
 *crtbegin.o(.dtors)
 *crtbegin?.o(.dtors)
 *(EXCLUDE_FILE(*crtend?.o *crtend.o) .dtors)
 *(SORT(.dtors.*))
 *(.dtors)
                0x9d000000                . = ALIGN (0x4)

.rodata         0x9d000000        0x0
 *(.gnu.linkonce.r.*)
 *(.rodata1)
                0x9d000000                . = ALIGN (0x4)

.sdata2         0x9fc00490        0x0
 *(.sdata2 .sdata2.* .gnu.linkonce.s2.*)
                0x9fc00490                . = ALIGN (0x4)

.sbss2          0x9fc00490        0x0
 *(.sbss2 .sbss2.* .gnu.linkonce.sb2.*)
                0x9fc00490                . = ALIGN (0x4)

.eh_frame_hdr
 *(.eh_frame_hdr)
                0x9fc00490                . = ALIGN (0x4)

.eh_frame
 *(.eh_frame)
                0x9fc00490                . = ALIGN (0x4)

.gcc_except_table
 *(.gcc_except_table .gcc_except_table.*)
                0x9fc00490                . = ALIGN (0x4)

.dbg_data       0xa0000000        0x0
                0xa0000000                . = (. + DEFINED (_DEBUGGER)?0x200:0x0)

.jcr            0xa0000000        0x0
 *(.jcr)
                0xa0000000                . = ALIGN (0x4)

.eh_frame
 *(.eh_frame)
                0xa0000000                . = ALIGN (0x4)

.gcc_except_table
 *(.gcc_except_table .gcc_except_table.*)
                0xa0000000                . = ALIGN (0x4)

.persist        0xa0000000        0x0
                0xa0000000                _persist_begin = .
 *(.persist .persist.*)
 *(.pbss .pbss.*)
                0xa0000000                . = ALIGN (0x4)
                0xa0000000                _persist_end = .

.data           0xa0000000        0x0
 *(.gnu.linkonce.d.*)
 *(.data1)
                0xa0000000                . = ALIGN (0x4)
                0xa0000000                . = .
                0xa0007ff0                _gp = (ALIGN (0x10) + 0x7ff0)

.got            0xa0000000        0x0
 *(.got.plt)
 *(.got)
                0xa0000000                . = ALIGN (0x4)

.sdata          0xa0000000       0x5c
                0xa0000000                _sdata_begin = .
 *(.sdata .sdata.* .gnu.linkonce.s.*)
 .sdata         0xa0000000        0x4 build/C32_PIC32MX460F512L/production/graphics/Meter.o
 .sdata         0xa0000004        0x1 build/C32_PIC32MX460F512L/production/graphics/Primitive.o
 *fill*         0xa0000005        0x3 00
 .sdata         0xa0000008        0x8 build/C32_PIC32MX460F512L/production/graphics/ProgressBar.o
 .sdata         0xa0000010        0x4 build/C32_PIC32MX460F512L/production/graphics/RoundDial.o
 .sdata         0xa0000014        0x4 build/C32_PIC32MX460F512L/production/TouchScreen.o
 .sdata         0xa0000018       0x14 build/C32_PIC32MX460F512L/production/TouchScreenResistive.o
                0xa0000018                adcX
                0xa000001a                adcY
                0xa000001c                xRawTouch
                0xa0000024                yRawTouch
 .sdata         0xa000002c       0x28 build/C32_PIC32MX460F512L/production/MainDemo.o
                0xa000002c                Strings
                0xa0000034                ptrLargeAsianFont
                0xa0000038                ptrSmallAsianFont
                0xa000003c                DTPlusSym
                0xa0000040                DTMinusSym
                0xa0000042                inc
 .sdata         0xa0000054        0x8 c:/program files (x86)/microchip/xc32/v1.21/bin/../lib/gcc/pic32mx/4.5.2/../../../../pic32mx/lib\libmchp_peripheral_32MX460F512L.a(_rtcc_wait_clock_off_lib.o)
                0xa0000054                _RtccWaitClkStepSz
                0xa0000058                _RtccWaitClkSteps
                0xa000005c                . = ALIGN (0x4)
                0xa000005c                _sdata_end = .

.lit8
 *(.lit8)

.lit4
 *(.lit4)
                0xa000005c                . = ALIGN (0x4)
                0xa000005c                _data_end = .
                0xa000005c                _bss_begin = .

.sbss           0xa000005c      0x26c
                0xa000005c                _sbss_begin = .
 *(.dynsbss)
 *(.sbss .sbss.* .gnu.linkonce.sb.*)
 .sbss          0xa000005c       0x14 build/C32_PIC32MX460F512L/production/graphics/Button.o
 .sbss          0xa0000070        0x8 build/C32_PIC32MX460F512L/production/graphics/CheckBox.o
 .sbss          0xa0000078        0xc build/C32_PIC32MX460F512L/production/graphics/DigitalMeter.o
 .sbss          0xa0000084       0x10 build/C32_PIC32MX460F512L/production/graphics/EditBox.o
 .sbss          0xa0000094       0x24 build/C32_PIC32MX460F512L/production/graphics/GOL.o
                0xa0000094                _pGolObjects
                0xa0000098                _pDefaultGolScheme
                0xa000009c                _pObjectFocused
                0xa00000a0                _pRpnlBitmap
 .sbss          0xa00000b8        0xc build/C32_PIC32MX460F512L/production/graphics/GroupBox.o
 .sbss          0xa00000c4       0x10 build/C32_PIC32MX460F512L/production/graphics/ListBox.o
 .sbss          0xa00000d4       0x28 build/C32_PIC32MX460F512L/production/graphics/Meter.o
 .sbss          0xa00000fc        0xc build/C32_PIC32MX460F512L/production/graphics/Picture.o
 .sbss          0xa0000108       0x48 build/C32_PIC32MX460F512L/production/graphics/Primitive.o
 .sbss          0xa0000150       0x14 build/C32_PIC32MX460F512L/production/graphics/ProgressBar.o
 .sbss          0xa0000164       0x14 build/C32_PIC32MX460F512L/production/graphics/RadioButton.o
                0xa0000164                _pListButtons
 .sbss          0xa0000178        0x8 build/C32_PIC32MX460F512L/production/graphics/RoundDial.o
 .sbss          0xa0000180       0x18 build/C32_PIC32MX460F512L/production/graphics/Slider.o
 .sbss          0xa0000198        0xc build/C32_PIC32MX460F512L/production/graphics/StaticText.o
 .sbss          0xa00001a4        0x4 build/C32_PIC32MX460F512L/production/graphics/Window.o
 .sbss          0xa00001a8        0xc build/C32_PIC32MX460F512L/production/exceptions.o
 .sbss          0xa00001b4        0x8 build/C32_PIC32MX460F512L/production/CustomControlDemo.o
 .sbss          0xa00001bc        0xc build/C32_PIC32MX460F512L/production/TouchScreen.o
                0xa00001bc                pCalDataRead
                0xa00001c0                pCalDataWrite
                0xa00001c4                pCalDataSectorErase
 .sbss          0xa00001c8        0xc build/C32_PIC32MX460F512L/production/TouchScreenResistive.o
                0xa00001c8                adcPot
                0xa00001cc                state
 .sbss          0xa00001d4       0x3c build/C32_PIC32MX460F512L/production/MainDemo.o
                0xa00001d4                _language
                0xa00001d8                screenState
                0xa00001dc                tick
                0xa00001e0                prevState
                0xa00001e4                prevRefreshState
                0xa00001e8                List2Enable
                0xa00001ea                refreshScreen
                0xa00001ec                PulldownId
                0xa00001ee                counter
 .sbss          0xa0000210        0x4 c:/program files (x86)/microchip/xc32/v1.21/bin/../lib/gcc/pic32mx/4.5.2/../../../../pic32mx/lib\libpic32.a(errno.o)
                0xa0000210                errno
 .sbss          0xa0000214       0x10 c:/program files (x86)/microchip/xc32/v1.21/bin/../lib/gcc/pic32mx/4.5.2/../../../../pic32mx/lib\libc.a(malloc.o)
                0xa0000214                __allocp
                0xa0000218                __alloct
                0xa000021c                __allocx
 .sbss          0xa0000224        0x8 c:/program files (x86)/microchip/xc32/v1.21/bin/../lib/gcc/pic32mx/4.5.2/../../../../pic32mx/lib\libpic32.a(sbrk.o)
                0xa0000224                _minbrk
                0xa0000228                _maxbrk
 *(.scommon)
 .scommon       0xa000022c        0xc build/C32_PIC32MX460F512L/production/graphics/drivers/ILI9341.o
                0xa000022c                _clipRgn
                0xa000022e                _clipRight
                0xa0000230                _clipBottom
                0xa0000232                _clipTop
                0xa0000234                _color
                0xa0000236                _clipLeft
 .scommon       0xa0000238       0x12 build/C32_PIC32MX460F512L/production/graphics/GOL.o
                0xa0000238                _rpnlX2
                0xa000023a                _rpnlR
                0xa000023c                _rpnlX1
                0xa000023e                _rpnlEmbossDkColor
                0xa0000240                _rpnlEmbossSize
                0xa0000242                _rpnlY2
                0xa0000244                _rpnlEmbossLtColor
                0xa0000246                _rpnlFaceColor
                0xa0000248                _rpnlY1
 .scommon       0xa000024a        0x9 build/C32_PIC32MX460F512L/production/graphics/Primitive.o
                0xa000024a                _cursorY
                0xa000024c                _fontOrientation
                0xa000024d                _bevelDrawType
                0xa000024e                _cursorX
                0xa0000250                _lineType
                0xa0000252                _lineThickness
 .scommon       0xa0000253        0x1 build/C32_PIC32MX460F512L/production/rtcc.o
                0xa0000253                _rtcc_flag
 .scommon       0xa0000254       0x10 build/C32_PIC32MX460F512L/production/TouchScreenResistive.o
                0xa0000254                _trC
                0xa0000258                _trB
                0xa000025c                _trD
                0xa0000260                _trA
 .scommon       0xa0000264       0x64 build/C32_PIC32MX460F512L/production/MainDemo.o
                0xa0000264                pProgressBar
                0xa0000268                alt5Scheme
                0xa000026c                x
                0xa0000270                redScheme
                0xa0000274                alt3Scheme
                0xa0000278                navScheme
                0xa000027c                pDwnBottom
                0xa0000280                altScheme
                0xa0000284                pNavList
                0xa0000288                greenScheme
                0xa000028c                pPicture
                0xa0000290                pGenObj
                0xa0000294                DateItemID
                0xa0000298                pSlider
                0xa000029c                pDwnLeft
                0xa00002a0                timeScheme
                0xa00002a4                alt4Scheme
                0xa00002a8                y
                0xa00002aa                prevX
                0xa00002ac                cursorUpdate
                0xa00002ae                pDwnRight
                0xa00002b0                alt2Scheme
                0xa00002b4                meterScheme
                0xa00002b8                animate
                0xa00002bc                pListSaved
                0xa00002c0                yellowScheme
                0xa00002c4                pDwnTop
                0xa00002c6                prevY
                0xa00002c8                _sbss_end = .
                0xa00002c8                . = ALIGN (0x4)

.bss            0xa00002c8      0x6dc
 *(.dynbss)
 *(COMMON)
 COMMON         0xa00002c8        0xc build/C32_PIC32MX460F512L/production/graphics/Primitive.o
                0xa00002c8                currentFont
 COMMON         0xa00002d4       0x20 build/C32_PIC32MX460F512L/production/rtcc.o
                0xa00002d4                _time
                0xa00002e4                _time_chk
 COMMON         0xa00002f4      0x6ae build/C32_PIC32MX460F512L/production/MainDemo.o
                0xa00002f4                tempBuffer
                0xa0000308                ecgBuffer
                0xa0000508                buffer
                0xa0000708                potBuffer
                0xa0000988                dateTimeStr
                0xa00009a4                . = ALIGN ((. != 0x0)?0x4:0x1)
 *fill*         0xa00009a2        0x2 00
                0xa00009a4                . = ALIGN (0x4)
                0xa00009a4                _end = .
                0xa00009a4                _bss_end = .
                0x00008000                _bmxdudba_address = 0x8000
                0x00008000                _bmxdupba_address = 0x8000

/DISCARD/
 *(.pdr)
 *(.rel.dyn)
 *(.note.GNU-stack)
 *(.note.GNU-stack)
 *(.gnu_debuglink)
 *(.gnu.lto_*)
 *(.discard)

.gptab.sdata
 *(.gptab.data)
 *(.gptab.sdata)

.gptab.sbss
 *(.gptab.bss)
 *(.gptab.sbss)

.mdebug.abi32   0xa00009a4        0x0
 *(.mdebug.abi32)
 .mdebug.abi32  0xa00009a4        0x0 build/C32_PIC32MX460F512L/production/graphics/drivers/ILI9341.o
 .mdebug.abi32  0xa00009a4        0x0 build/C32_PIC32MX460F512L/production/graphics/AnalogClock.o
 .mdebug.abi32  0xa00009a4        0x0 build/C32_PIC32MX460F512L/production/graphics/Button.o
 .mdebug.abi32  0xa00009a4        0x0 build/C32_PIC32MX460F512L/production/graphics/Chart.o
 .mdebug.abi32  0xa00009a4        0x0 build/C32_PIC32MX460F512L/production/graphics/CheckBox.o
 .mdebug.abi32  0xa00009a4        0x0 build/C32_PIC32MX460F512L/production/graphics/DigitalMeter.o
 .mdebug.abi32  0xa00009a4        0x0 build/C32_PIC32MX460F512L/production/graphics/EditBox.o
 .mdebug.abi32  0xa00009a4        0x0 build/C32_PIC32MX460F512L/production/graphics/GOL.o
 .mdebug.abi32  0xa00009a4        0x0 build/C32_PIC32MX460F512L/production/graphics/GOLSchemeDefault.o
 .mdebug.abi32  0xa00009a4        0x0 build/C32_PIC32MX460F512L/production/graphics/Grid.o
 .mdebug.abi32  0xa00009a4        0x0 build/C32_PIC32MX460F512L/production/graphics/GroupBox.o
 .mdebug.abi32  0xa00009a4        0x0 build/C32_PIC32MX460F512L/production/graphics/ListBox.o
 .mdebug.abi32  0xa00009a4        0x0 build/C32_PIC32MX460F512L/production/graphics/Meter.o
 .mdebug.abi32  0xa00009a4        0x0 build/C32_PIC32MX460F512L/production/graphics/Palette.o
 .mdebug.abi32  0xa00009a4        0x0 build/C32_PIC32MX460F512L/production/graphics/Picture.o
 .mdebug.abi32  0xa00009a4        0x0 build/C32_PIC32MX460F512L/production/graphics/Primitive.o
 .mdebug.abi32  0xa00009a4        0x0 build/C32_PIC32MX460F512L/production/graphics/ProgressBar.o
 .mdebug.abi32  0xa00009a4        0x0 build/C32_PIC32MX460F512L/production/graphics/RadioButton.o
 .mdebug.abi32  0xa00009a4        0x0 build/C32_PIC32MX460F512L/production/graphics/RoundDial.o
 .mdebug.abi32  0xa00009a4        0x0 build/C32_PIC32MX460F512L/production/graphics/Slider.o
 .mdebug.abi32  0xa00009a4        0x0 build/C32_PIC32MX460F512L/production/graphics/StaticText.o
 .mdebug.abi32  0xa00009a4        0x0 build/C32_PIC32MX460F512L/production/graphics/Template.o
 .mdebug.abi32  0xa00009a4        0x0 build/C32_PIC32MX460F512L/production/graphics/TextEntry.o
 .mdebug.abi32  0xa00009a4        0x0 build/C32_PIC32MX460F512L/production/graphics/Transitions.o
 .mdebug.abi32  0xa00009a4        0x0 build/C32_PIC32MX460F512L/production/graphics/Transitions_weak.o
 .mdebug.abi32  0xa00009a4        0x0 build/C32_PIC32MX460F512L/production/graphics/Window.o
 .mdebug.abi32  0xa00009a4        0x0 build/C32_PIC32MX460F512L/production/configuration_bits.o
 .mdebug.abi32  0xa00009a4        0x0 build/C32_PIC32MX460F512L/production/exceptions.o
 .mdebug.abi32  0xa00009a4        0x0 build/C32_PIC32MX460F512L/production/interrupts.o
 .mdebug.abi32  0xa00009a4        0x0 build/C32_PIC32MX460F512L/production/system.o
 .mdebug.abi32  0xa00009a4        0x0 build/C32_PIC32MX460F512L/production/user.o
 .mdebug.abi32  0xa00009a4        0x0 build/C32_PIC32MX460F512L/production/TimeDelay.o
 .mdebug.abi32  0xa00009a4        0x0 build/C32_PIC32MX460F512L/production/Beep.o
 .mdebug.abi32  0xa00009a4        0x0 build/C32_PIC32MX460F512L/production/CustomControlDemo.o
 .mdebug.abi32  0xa00009a4        0x0 build/C32_PIC32MX460F512L/production/TouchScreen.o
 .mdebug.abi32  0xa00009a4        0x0 build/C32_PIC32MX460F512L/production/drv_spi.o
 .mdebug.abi32  0xa00009a4        0x0 build/C32_PIC32MX460F512L/production/rtcc.o
 .mdebug.abi32  0xa00009a4        0x0 build/C32_PIC32MX460F512L/production/InternalResourceXC32.o
 .mdebug.abi32  0xa00009a4        0x0 build/C32_PIC32MX460F512L/production/cpld.o
 .mdebug.abi32  0xa00009a4        0x0 build/C32_PIC32MX460F512L/production/TouchScreenResistive.o
 .mdebug.abi32  0xa00009a4        0x0 build/C32_PIC32MX460F512L/production/MainDemo.o
 .mdebug.abi32  0xa00009a4        0x0 build/C32_PIC32MX460F512L/production/SST25VF016.o
 .mdebug.abi32  0xa00009a4        0x0 c:/program files (x86)/microchip/xc32/v1.21/bin/../lib/gcc/pic32mx/4.5.2/../../../../pic32mx/lib\libmchp_peripheral_32MX460F512L.a(pcache.o)
 .mdebug.abi32  0xa00009a4        0x0 c:/program files (x86)/microchip/xc32/v1.21/bin/../lib/gcc/pic32mx/4.5.2/../../../../pic32mx/lib\libmchp_peripheral_32MX460F512L.a(int_disable_interrupts_lib.o)
 .mdebug.abi32  0xa00009a4        0x0 c:/program files (x86)/microchip/xc32/v1.21/bin/../lib/gcc/pic32mx/4.5.2/../../../../pic32mx/lib\libmchp_peripheral_32MX460F512L.a(int_restore_interrupts_lib.o)
 .mdebug.abi32  0xa00009a4        0x0 c:/program files (x86)/microchip/xc32/v1.21/bin/../lib/gcc/pic32mx/4.5.2/../../../../pic32mx/lib\libmchp_peripheral_32MX460F512L.a(int_enable_mv_int_lib.o)
 .mdebug.abi32  0xa00009a4        0x0 c:/program files (x86)/microchip/xc32/v1.21/bin/../lib/gcc/pic32mx/4.5.2/../../../../pic32mx/lib\libmchp_peripheral_32MX460F512L.a(rtcc_init_lib.o)
 .mdebug.abi32  0xa00009a4        0x0 c:/program files (x86)/microchip/xc32/v1.21/bin/../lib/gcc/pic32mx/4.5.2/../../../../pic32mx/lib\libmchp_peripheral_32MX460F512L.a(rtcc_set_date_lib.o)
 .mdebug.abi32  0xa00009a4        0x0 c:/program files (x86)/microchip/xc32/v1.21/bin/../lib/gcc/pic32mx/4.5.2/../../../../pic32mx/lib\libmchp_peripheral_32MX460F512L.a(rtcc_set_time_lib.o)
 .mdebug.abi32  0xa00009a4        0x0 c:/program files (x86)/microchip/xc32/v1.21/bin/../lib/gcc/pic32mx/4.5.2/../../../../pic32mx/lib\libmchp_peripheral_32MX460F512L.a(int_enable_interrupts_lib.o)
 .mdebug.abi32  0xa00009a4        0x0 c:/program files (x86)/microchip/xc32/v1.21/bin/../lib/gcc/pic32mx/4.5.2/../../../../pic32mx/lib\libmchp_peripheral_32MX460F512L.a(int_tbl_lib.o)
 .mdebug.abi32  0xa00009a4        0x0 c:/program files (x86)/microchip/xc32/v1.21/bin/../lib/gcc/pic32mx/4.5.2/../../../../pic32mx/lib\libmchp_peripheral_32MX460F512L.a(_rtcc_set_time_and_date_lib.o)
 .mdebug.abi32  0xa00009a4        0x0 c:/program files (x86)/microchip/xc32/v1.21/bin/../lib/gcc/pic32mx/4.5.2/../../../../pic32mx/lib\libmchp_peripheral_32MX460F512L.a(_rtcc_wait_clock_off_lib.o)
 .mdebug.abi32  0xa00009a4        0x0 c:/program files (x86)/microchip/xc32/v1.21/bin/../lib/gcc/pic32mx/4.5.2/../../../../pic32mx/lib\libmchp_peripheral_32MX460F512L.a(read_core_timer_lib.o)
 .mdebug.abi32  0xa00009a4        0x0 c:/program files (x86)/microchip/xc32/v1.21/bin/../lib/gcc/pic32mx/4.5.2/../../../../pic32mx/lib\libpic32.a(default-bootstrap-exception-handler.o)
 .mdebug.abi32  0xa00009a4        0x0 c:/program files (x86)/microchip/xc32/v1.21/bin/../lib/gcc/pic32mx/4.5.2/../../../../pic32mx/lib\libpic32.a(default-on-reset.o)
 .mdebug.abi32  0xa00009a4        0x0 c:/program files (x86)/microchip/xc32/v1.21/bin/../lib/gcc/pic32mx/4.5.2/../../../../pic32mx/lib\libpic32.a(default-on-bootstrap.o)
 .mdebug.abi32  0xa00009a4        0x0 c:/program files (x86)/microchip/xc32/v1.21/bin/../lib/gcc/pic32mx/4.5.2/../../../../pic32mx/lib\libpic32.a(defaultinterrupt.o)
 .mdebug.abi32  0xa00009a4        0x0 c:/program files (x86)/microchip/xc32/v1.21/bin/../lib/gcc/pic32mx/4.5.2/../../../../pic32mx/lib\libm.a(w_sqrtf.o)
 .mdebug.abi32  0xa00009a4        0x0 c:/program files (x86)/microchip/xc32/v1.21/bin/../lib/gcc/pic32mx/4.5.2/../../../../pic32mx/lib\libm.a(s_lib_ver.o)
 .mdebug.abi32  0xa00009a4        0x0 c:/program files (x86)/microchip/xc32/v1.21/bin/../lib/gcc/pic32mx/4.5.2/../../../../pic32mx/lib\libpic32.a(errno.o)
 .mdebug.abi32  0xa00009a4        0x0 c:/program files (x86)/microchip/xc32/v1.21/bin/../lib/gcc/pic32mx/4.5.2/../../../../pic32mx/lib\libc.a(malloc.o)
 .mdebug.abi32  0xa00009a4        0x0 c:/program files (x86)/microchip/xc32/v1.21/bin/../lib/gcc/pic32mx/4.5.2/../../../../pic32mx/lib\libpic32.a(sbrk.o)

.mdebug.abiN32
 *(.mdebug.abiN32)

.mdebug.abi64
 *(.mdebug.abi64)

.mdebug.abiO64
 *(.mdebug.abiO64)

.mdebug.eabi32
 *(.mdebug.eabi32)

.mdebug.eabi64
 *(.mdebug.eabi64)

.gcc_compiled_long32
 *(.gcc_compiled_long32)

.gcc_compiled_long64
 *(.gcc_compiled_long64)

.stab
 *(.stab)

.stabstr
 *(.stabstr)

.stab.excl
 *(.stab.excl)

.stab.exclstr
 *(.stab.exclstr)

.stab.index
 *(.stab.index)

.stab.indexstr
 *(.stab.indexstr)

.comment        0x00000000       0xdb
 *(.comment)
 .comment       0x00000000       0x3c build/C32_PIC32MX460F512L/production/graphics/drivers/ILI9341.o
                                 0x3d (size before relaxing)
 .comment       0x00000000       0x3d build/C32_PIC32MX460F512L/production/graphics/AnalogClock.o
 .comment       0x00000000       0x3d build/C32_PIC32MX460F512L/production/graphics/Button.o
 .comment       0x00000000       0x3d build/C32_PIC32MX460F512L/production/graphics/Chart.o
 .comment       0x00000000       0x3d build/C32_PIC32MX460F512L/production/graphics/CheckBox.o
 .comment       0x00000000       0x3d build/C32_PIC32MX460F512L/production/graphics/DigitalMeter.o
 .comment       0x00000000       0x3d build/C32_PIC32MX460F512L/production/graphics/EditBox.o
 .comment       0x00000000       0x3d build/C32_PIC32MX460F512L/production/graphics/GOL.o
 .comment       0x00000000       0x3d build/C32_PIC32MX460F512L/production/graphics/GOLSchemeDefault.o
 .comment       0x00000000       0x3d build/C32_PIC32MX460F512L/production/graphics/Grid.o
 .comment       0x00000000       0x3d build/C32_PIC32MX460F512L/production/graphics/GroupBox.o
 .comment       0x00000000       0x3d build/C32_PIC32MX460F512L/production/graphics/ListBox.o
 .comment       0x00000000       0x3d build/C32_PIC32MX460F512L/production/graphics/Meter.o
 .comment       0x00000000       0x3d build/C32_PIC32MX460F512L/production/graphics/Palette.o
 .comment       0x00000000       0x3d build/C32_PIC32MX460F512L/production/graphics/Picture.o
 .comment       0x00000000       0x3d build/C32_PIC32MX460F512L/production/graphics/Primitive.o
 .comment       0x00000000       0x3d build/C32_PIC32MX460F512L/production/graphics/ProgressBar.o
 .comment       0x00000000       0x3d build/C32_PIC32MX460F512L/production/graphics/RadioButton.o
 .comment       0x00000000       0x3d build/C32_PIC32MX460F512L/production/graphics/RoundDial.o
 .comment       0x00000000       0x3d build/C32_PIC32MX460F512L/production/graphics/Slider.o
 .comment       0x00000000       0x3d build/C32_PIC32MX460F512L/production/graphics/StaticText.o
 .comment       0x00000000       0x3d build/C32_PIC32MX460F512L/production/graphics/Template.o
 .comment       0x00000000       0x3d build/C32_PIC32MX460F512L/production/graphics/TextEntry.o
 .comment       0x00000000       0x3d build/C32_PIC32MX460F512L/production/graphics/Transitions.o
 .comment       0x00000000       0x3d build/C32_PIC32MX460F512L/production/graphics/Transitions_weak.o
 .comment       0x00000000       0x3d build/C32_PIC32MX460F512L/production/graphics/Window.o
 .comment       0x00000000       0x3d build/C32_PIC32MX460F512L/production/configuration_bits.o
 .comment       0x00000000       0x3d build/C32_PIC32MX460F512L/production/exceptions.o
 .comment       0x00000000       0x3d build/C32_PIC32MX460F512L/production/interrupts.o
 .comment       0x00000000       0x3d build/C32_PIC32MX460F512L/production/system.o
 .comment       0x00000000       0x3d build/C32_PIC32MX460F512L/production/user.o
 .comment       0x00000000       0x3d build/C32_PIC32MX460F512L/production/TimeDelay.o
 .comment       0x00000000       0x3d build/C32_PIC32MX460F512L/production/Beep.o
 .comment       0x00000000       0x3d build/C32_PIC32MX460F512L/production/CustomControlDemo.o
 .comment       0x00000000       0x3d build/C32_PIC32MX460F512L/production/TouchScreen.o
 .comment       0x00000000       0x3d build/C32_PIC32MX460F512L/production/drv_spi.o
 .comment       0x00000000       0x3d build/C32_PIC32MX460F512L/production/rtcc.o
 .comment       0x00000000       0x3d build/C32_PIC32MX460F512L/production/InternalResourceXC32.o
 .comment       0x00000000       0x3d build/C32_PIC32MX460F512L/production/cpld.o
 .comment       0x00000000       0x3d build/C32_PIC32MX460F512L/production/TouchScreenResistive.o
 .comment       0x00000000       0x3d build/C32_PIC32MX460F512L/production/MainDemo.o
 .comment       0x00000000       0x3d build/C32_PIC32MX460F512L/production/SST25VF016.o
 .comment       0x0000003c       0x3c c:/program files (x86)/microchip/xc32/v1.21/bin/../lib/gcc/pic32mx/4.5.2/../../../../pic32mx/lib\libmchp_peripheral_32MX460F512L.a(pcache.o)
                                 0x3d (size before relaxing)
 .comment       0x00000000       0x3d c:/program files (x86)/microchip/xc32/v1.21/bin/../lib/gcc/pic32mx/4.5.2/../../../../pic32mx/lib\libmchp_peripheral_32MX460F512L.a(int_disable_interrupts_lib.o)
 .comment       0x00000000       0x3d c:/program files (x86)/microchip/xc32/v1.21/bin/../lib/gcc/pic32mx/4.5.2/../../../../pic32mx/lib\libmchp_peripheral_32MX460F512L.a(int_restore_interrupts_lib.o)
 .comment       0x00000000       0x3d c:/program files (x86)/microchip/xc32/v1.21/bin/../lib/gcc/pic32mx/4.5.2/../../../../pic32mx/lib\libmchp_peripheral_32MX460F512L.a(int_enable_mv_int_lib.o)
 .comment       0x00000000       0x3d c:/program files (x86)/microchip/xc32/v1.21/bin/../lib/gcc/pic32mx/4.5.2/../../../../pic32mx/lib\libmchp_peripheral_32MX460F512L.a(rtcc_init_lib.o)
 .comment       0x00000000       0x3d c:/program files (x86)/microchip/xc32/v1.21/bin/../lib/gcc/pic32mx/4.5.2/../../../../pic32mx/lib\libmchp_peripheral_32MX460F512L.a(rtcc_set_date_lib.o)
 .comment       0x00000000       0x3d c:/program files (x86)/microchip/xc32/v1.21/bin/../lib/gcc/pic32mx/4.5.2/../../../../pic32mx/lib\libmchp_peripheral_32MX460F512L.a(rtcc_set_time_lib.o)
 .comment       0x00000000       0x3d c:/program files (x86)/microchip/xc32/v1.21/bin/../lib/gcc/pic32mx/4.5.2/../../../../pic32mx/lib\libmchp_peripheral_32MX460F512L.a(int_enable_interrupts_lib.o)
 .comment       0x00000000       0x3d c:/program files (x86)/microchip/xc32/v1.21/bin/../lib/gcc/pic32mx/4.5.2/../../../../pic32mx/lib\libmchp_peripheral_32MX460F512L.a(int_tbl_lib.o)
 .comment       0x00000000       0x3d c:/program files (x86)/microchip/xc32/v1.21/bin/../lib/gcc/pic32mx/4.5.2/../../../../pic32mx/lib\libmchp_peripheral_32MX460F512L.a(_rtcc_set_time_and_date_lib.o)
 .comment       0x00000000       0x3d c:/program files (x86)/microchip/xc32/v1.21/bin/../lib/gcc/pic32mx/4.5.2/../../../../pic32mx/lib\libmchp_peripheral_32MX460F512L.a(_rtcc_wait_clock_off_lib.o)
 .comment       0x00000000       0x3d c:/program files (x86)/microchip/xc32/v1.21/bin/../lib/gcc/pic32mx/4.5.2/../../../../pic32mx/lib\libmchp_peripheral_32MX460F512L.a(read_core_timer_lib.o)
 .comment       0x00000000       0x3d c:/program files (x86)/microchip/xc32/v1.21/bin/../lib/gcc/pic32mx/4.5.2/../../../../pic32mx/lib\libpic32.a(default-bootstrap-exception-handler.o)
 .comment       0x00000000       0x3d c:/program files (x86)/microchip/xc32/v1.21/bin/../lib/gcc/pic32mx/4.5.2/../../../../pic32mx/lib\libpic32.a(default-on-reset.o)
 .comment       0x00000000       0x3d c:/program files (x86)/microchip/xc32/v1.21/bin/../lib/gcc/pic32mx/4.5.2/../../../../pic32mx/lib\libpic32.a(default-on-bootstrap.o)
 .comment       0x00000000       0x3d c:/program files (x86)/microchip/xc32/v1.21/bin/../lib/gcc/pic32mx/4.5.2/../../../../pic32mx/lib\libpic32.a(defaultinterrupt.o)
 .comment       0x00000000       0x3d c:/program files (x86)/microchip/xc32/v1.21/bin/../lib/gcc/pic32mx/4.5.2/../../../../pic32mx/lib\libm.a(w_sqrtf.o)
 .comment       0x00000000       0x3d c:/program files (x86)/microchip/xc32/v1.21/bin/../lib/gcc/pic32mx/4.5.2/../../../../pic32mx/lib\libm.a(s_lib_ver.o)
 .comment       0x00000000       0x3d c:/program files (x86)/microchip/xc32/v1.21/bin/../lib/gcc/pic32mx/4.5.2/../../../../pic32mx/lib\libpic32.a(errno.o)
 .comment       0x00000000       0x3d c:/program files (x86)/microchip/xc32/v1.21/bin/../lib/gcc/pic32mx/4.5.2/../../../../pic32mx/lib\libc.a(malloc.o)
 .comment       0x00000078       0x4b c:/program files (x86)/microchip/xc32/v1.21/bin/../lib/gcc/pic32mx/4.5.2/../../../../pic32mx/lib\libpic32.a(sbrk.o)
                                 0x88 (size before relaxing)
 .comment       0x000000c3       0x18 c:/program files (x86)/microchip/xc32/v1.21/bin/../lib/gcc/pic32mx/4.5.2/../../../../pic32mx/lib\libpic32.a(memset.o)
                                 0x19 (size before relaxing)

.debug
 *(.debug)

.line
 *(.line)

.debug_srcinfo
 *(.debug_srcinfo)

.debug_sfnames
 *(.debug_sfnames)

.debug_aranges  0x00000000      0x640
 *(.debug_aranges)
 .debug_aranges
                0x00000000       0x20 build/C32_PIC32MX460F512L/production/graphics/drivers/ILI9341.o
 .debug_aranges
                0x00000020       0x20 build/C32_PIC32MX460F512L/production/graphics/Button.o
 .debug_aranges
                0x00000040       0x20 build/C32_PIC32MX460F512L/production/graphics/CheckBox.o
 .debug_aranges
                0x00000060       0x20 build/C32_PIC32MX460F512L/production/graphics/DigitalMeter.o
 .debug_aranges
                0x00000080       0x20 build/C32_PIC32MX460F512L/production/graphics/EditBox.o
 .debug_aranges
                0x000000a0       0x20 build/C32_PIC32MX460F512L/production/graphics/GOL.o
 .debug_aranges
                0x000000c0       0x20 build/C32_PIC32MX460F512L/production/graphics/GroupBox.o
 .debug_aranges
                0x000000e0       0x20 build/C32_PIC32MX460F512L/production/graphics/ListBox.o
 .debug_aranges
                0x00000100       0x20 build/C32_PIC32MX460F512L/production/graphics/Meter.o
 .debug_aranges
                0x00000120       0x20 build/C32_PIC32MX460F512L/production/graphics/Picture.o
 .debug_aranges
                0x00000140       0x20 build/C32_PIC32MX460F512L/production/graphics/Primitive.o
 .debug_aranges
                0x00000160       0x20 build/C32_PIC32MX460F512L/production/graphics/ProgressBar.o
 .debug_aranges
                0x00000180       0x20 build/C32_PIC32MX460F512L/production/graphics/RadioButton.o
 .debug_aranges
                0x000001a0       0x20 build/C32_PIC32MX460F512L/production/graphics/RoundDial.o
 .debug_aranges
                0x000001c0       0x20 build/C32_PIC32MX460F512L/production/graphics/Slider.o
 .debug_aranges
                0x000001e0       0x20 build/C32_PIC32MX460F512L/production/graphics/StaticText.o
 .debug_aranges
                0x00000200       0x20 build/C32_PIC32MX460F512L/production/graphics/Window.o
 .debug_aranges
                0x00000220       0x20 build/C32_PIC32MX460F512L/production/exceptions.o
 .debug_aranges
                0x00000240       0x20 build/C32_PIC32MX460F512L/production/user.o
 .debug_aranges
                0x00000260       0x20 build/C32_PIC32MX460F512L/production/TimeDelay.o
 .debug_aranges
                0x00000280       0x20 build/C32_PIC32MX460F512L/production/CustomControlDemo.o
 .debug_aranges
                0x000002a0       0x20 build/C32_PIC32MX460F512L/production/TouchScreen.o
 .debug_aranges
                0x000002c0       0x20 build/C32_PIC32MX460F512L/production/drv_spi.o
 .debug_aranges
                0x000002e0       0x20 build/C32_PIC32MX460F512L/production/rtcc.o
 .debug_aranges
                0x00000300       0x20 build/C32_PIC32MX460F512L/production/TouchScreenResistive.o
 .debug_aranges
                0x00000320       0x20 build/C32_PIC32MX460F512L/production/MainDemo.o
 .debug_aranges
                0x00000340       0x20 build/C32_PIC32MX460F512L/production/SST25VF016.o
 .debug_aranges
                0x00000360       0x28 c:/program files (x86)/microchip/xc32/v1.21/bin/../lib/gcc/pic32mx/4.5.2/../../../../pic32mx/lib\libmchp_peripheral_32MX460F512L.a(pcache.o)
 .debug_aranges
                0x00000388       0x20 c:/program files (x86)/microchip/xc32/v1.21/bin/../lib/gcc/pic32mx/4.5.2/../../../../pic32mx/lib\libmchp_peripheral_32MX460F512L.a(int_disable_interrupts_lib.o)
 .debug_aranges
                0x000003a8       0x20 c:/program files (x86)/microchip/xc32/v1.21/bin/../lib/gcc/pic32mx/4.5.2/../../../../pic32mx/lib\libmchp_peripheral_32MX460F512L.a(int_restore_interrupts_lib.o)
 .debug_aranges
                0x000003c8       0x20 c:/program files (x86)/microchip/xc32/v1.21/bin/../lib/gcc/pic32mx/4.5.2/../../../../pic32mx/lib\libmchp_peripheral_32MX460F512L.a(int_enable_mv_int_lib.o)
 .debug_aranges
                0x000003e8       0x20 c:/program files (x86)/microchip/xc32/v1.21/bin/../lib/gcc/pic32mx/4.5.2/../../../../pic32mx/lib\libmchp_peripheral_32MX460F512L.a(rtcc_init_lib.o)
 .debug_aranges
                0x00000408       0x20 c:/program files (x86)/microchip/xc32/v1.21/bin/../lib/gcc/pic32mx/4.5.2/../../../../pic32mx/lib\libmchp_peripheral_32MX460F512L.a(rtcc_set_date_lib.o)
 .debug_aranges
                0x00000428       0x20 c:/program files (x86)/microchip/xc32/v1.21/bin/../lib/gcc/pic32mx/4.5.2/../../../../pic32mx/lib\libmchp_peripheral_32MX460F512L.a(rtcc_set_time_lib.o)
 .debug_aranges
                0x00000448       0x20 c:/program files (x86)/microchip/xc32/v1.21/bin/../lib/gcc/pic32mx/4.5.2/../../../../pic32mx/lib\libmchp_peripheral_32MX460F512L.a(int_enable_interrupts_lib.o)
 .debug_aranges
                0x00000468       0x60 c:/program files (x86)/microchip/xc32/v1.21/bin/../lib/gcc/pic32mx/4.5.2/../../../../pic32mx/lib\libmchp_peripheral_32MX460F512L.a(int_tbl_lib.o)
 .debug_aranges
                0x000004c8       0x20 c:/program files (x86)/microchip/xc32/v1.21/bin/../lib/gcc/pic32mx/4.5.2/../../../../pic32mx/lib\libmchp_peripheral_32MX460F512L.a(_rtcc_set_time_and_date_lib.o)
 .debug_aranges
                0x000004e8       0x28 c:/program files (x86)/microchip/xc32/v1.21/bin/../lib/gcc/pic32mx/4.5.2/../../../../pic32mx/lib\libmchp_peripheral_32MX460F512L.a(_rtcc_wait_clock_off_lib.o)
 .debug_aranges
                0x00000510       0x20 c:/program files (x86)/microchip/xc32/v1.21/bin/../lib/gcc/pic32mx/4.5.2/../../../../pic32mx/lib\libmchp_peripheral_32MX460F512L.a(read_core_timer_lib.o)
 .debug_aranges
                0x00000530       0x20 c:/program files (x86)/microchip/xc32/v1.21/bin/../lib/gcc/pic32mx/4.5.2/../../../../pic32mx/lib\libpic32.a(default-bootstrap-exception-handler.o)
 .debug_aranges
                0x00000550       0x20 c:/program files (x86)/microchip/xc32/v1.21/bin/../lib/gcc/pic32mx/4.5.2/../../../../pic32mx/lib\libpic32.a(default-on-reset.o)
 .debug_aranges
                0x00000570       0x20 c:/program files (x86)/microchip/xc32/v1.21/bin/../lib/gcc/pic32mx/4.5.2/../../../../pic32mx/lib\libpic32.a(default-on-bootstrap.o)
 .debug_aranges
                0x00000590       0x20 c:/program files (x86)/microchip/xc32/v1.21/bin/../lib/gcc/pic32mx/4.5.2/../../../../pic32mx/lib\libpic32.a(defaultinterrupt.o)
 .debug_aranges
                0x000005b0       0x20 c:/program files (x86)/microchip/xc32/v1.21/bin/../lib/gcc/pic32mx/4.5.2/../../../../pic32mx/lib\libm.a(w_sqrtf.o)
 .debug_aranges
                0x000005d0       0x30 c:/program files (x86)/microchip/xc32/v1.21/bin/../lib/gcc/pic32mx/4.5.2/../../../../pic32mx/lib\libc.a(malloc.o)
 .debug_aranges
                0x00000600       0x40 c:/program files (x86)/microchip/xc32/v1.21/bin/../lib/gcc/pic32mx/4.5.2/../../../../pic32mx/lib\libpic32.a(sbrk.o)

.debug_pubnames
                0x00000000     0x28ea
 *(.debug_pubnames)
 .debug_pubnames
                0x00000000      0x148 build/C32_PIC32MX460F512L/production/graphics/drivers/ILI9341.o
 .debug_pubnames
                0x00000148       0x8f build/C32_PIC32MX460F512L/production/graphics/Button.o
 .debug_pubnames
                0x000001d7       0x5c build/C32_PIC32MX460F512L/production/graphics/CheckBox.o
 .debug_pubnames
                0x00000233       0x4c build/C32_PIC32MX460F512L/production/graphics/DigitalMeter.o
 .debug_pubnames
                0x0000027f       0x7b build/C32_PIC32MX460F512L/production/graphics/EditBox.o
 .debug_pubnames
                0x000002fa      0x20d build/C32_PIC32MX460F512L/production/graphics/GOL.o
 .debug_pubnames
                0x00000507       0x27 build/C32_PIC32MX460F512L/production/graphics/GOLSchemeDefault.o
 .debug_pubnames
                0x0000052e       0x4b build/C32_PIC32MX460F512L/production/graphics/GroupBox.o
 .debug_pubnames
                0x00000579       0xc4 build/C32_PIC32MX460F512L/production/graphics/ListBox.o
 .debug_pubnames
                0x0000063d       0x76 build/C32_PIC32MX460F512L/production/graphics/Meter.o
 .debug_pubnames
                0x000006b3       0x43 build/C32_PIC32MX460F512L/production/graphics/Picture.o
 .debug_pubnames
                0x000006f6      0x304 build/C32_PIC32MX460F512L/production/graphics/Primitive.o
 .debug_pubnames
                0x000009fa       0x6c build/C32_PIC32MX460F512L/production/graphics/ProgressBar.o
 .debug_pubnames
                0x00000a66       0x8c build/C32_PIC32MX460F512L/production/graphics/RadioButton.o
 .debug_pubnames
                0x00000af2       0x7e build/C32_PIC32MX460F512L/production/graphics/RoundDial.o
 .debug_pubnames
                0x00000b70       0xc8 build/C32_PIC32MX460F512L/production/graphics/Slider.o
 .debug_pubnames
                0x00000c38       0x4b build/C32_PIC32MX460F512L/production/graphics/StaticText.o
 .debug_pubnames
                0x00000c83       0x4f build/C32_PIC32MX460F512L/production/graphics/Window.o
 .debug_pubnames
                0x00000cd2       0x31 build/C32_PIC32MX460F512L/production/exceptions.o
 .debug_pubnames
                0x00000d03       0x1e build/C32_PIC32MX460F512L/production/user.o
 .debug_pubnames
                0x00000d21       0x2c build/C32_PIC32MX460F512L/production/TimeDelay.o
 .debug_pubnames
                0x00000d4d       0x4e build/C32_PIC32MX460F512L/production/CustomControlDemo.o
 .debug_pubnames
                0x00000d9b       0xb9 build/C32_PIC32MX460F512L/production/TouchScreen.o
 .debug_pubnames
                0x00000e54       0x59 build/C32_PIC32MX460F512L/production/drv_spi.o
 .debug_pubnames
                0x00000ead      0x11c build/C32_PIC32MX460F512L/production/rtcc.o
 .debug_pubnames
                0x00000fc9      0xb84 build/C32_PIC32MX460F512L/production/InternalResourceXC32.o
 .debug_pubnames
                0x00001b4d      0x179 build/C32_PIC32MX460F512L/production/TouchScreenResistive.o
 .debug_pubnames
                0x00001cc6      0x730 build/C32_PIC32MX460F512L/production/MainDemo.o
 .debug_pubnames
                0x000023f6      0x101 build/C32_PIC32MX460F512L/production/SST25VF016.o
 .debug_pubnames
                0x000024f7       0x3b c:/program files (x86)/microchip/xc32/v1.21/bin/../lib/gcc/pic32mx/4.5.2/../../../../pic32mx/lib\libmchp_peripheral_32MX460F512L.a(pcache.o)
 .debug_pubnames
                0x00002532       0x2b c:/program files (x86)/microchip/xc32/v1.21/bin/../lib/gcc/pic32mx/4.5.2/../../../../pic32mx/lib\libmchp_peripheral_32MX460F512L.a(int_disable_interrupts_lib.o)
 .debug_pubnames
                0x0000255d       0x2b c:/program files (x86)/microchip/xc32/v1.21/bin/../lib/gcc/pic32mx/4.5.2/../../../../pic32mx/lib\libmchp_peripheral_32MX460F512L.a(int_restore_interrupts_lib.o)
 .debug_pubnames
                0x00002588       0x36 c:/program files (x86)/microchip/xc32/v1.21/bin/../lib/gcc/pic32mx/4.5.2/../../../../pic32mx/lib\libmchp_peripheral_32MX460F512L.a(int_enable_mv_int_lib.o)
 .debug_pubnames
                0x000025be       0x1f c:/program files (x86)/microchip/xc32/v1.21/bin/../lib/gcc/pic32mx/4.5.2/../../../../pic32mx/lib\libmchp_peripheral_32MX460F512L.a(rtcc_init_lib.o)
 .debug_pubnames
                0x000025dd       0x22 c:/program files (x86)/microchip/xc32/v1.21/bin/../lib/gcc/pic32mx/4.5.2/../../../../pic32mx/lib\libmchp_peripheral_32MX460F512L.a(rtcc_set_date_lib.o)
 .debug_pubnames
                0x000025ff       0x22 c:/program files (x86)/microchip/xc32/v1.21/bin/../lib/gcc/pic32mx/4.5.2/../../../../pic32mx/lib\libmchp_peripheral_32MX460F512L.a(rtcc_set_time_lib.o)
 .debug_pubnames
                0x00002621       0x2a c:/program files (x86)/microchip/xc32/v1.21/bin/../lib/gcc/pic32mx/4.5.2/../../../../pic32mx/lib\libmchp_peripheral_32MX460F512L.a(int_enable_interrupts_lib.o)
 .debug_pubnames
                0x0000264b       0xca c:/program files (x86)/microchip/xc32/v1.21/bin/../lib/gcc/pic32mx/4.5.2/../../../../pic32mx/lib\libmchp_peripheral_32MX460F512L.a(int_tbl_lib.o)
 .debug_pubnames
                0x00002715       0x2a c:/program files (x86)/microchip/xc32/v1.21/bin/../lib/gcc/pic32mx/4.5.2/../../../../pic32mx/lib\libmchp_peripheral_32MX460F512L.a(_rtcc_set_time_and_date_lib.o)
 .debug_pubnames
                0x0000273f       0x3e c:/program files (x86)/microchip/xc32/v1.21/bin/../lib/gcc/pic32mx/4.5.2/../../../../pic32mx/lib\libmchp_peripheral_32MX460F512L.a(_rtcc_wait_clock_off_lib.o)
 .debug_pubnames
                0x0000277d       0x24 c:/program files (x86)/microchip/xc32/v1.21/bin/../lib/gcc/pic32mx/4.5.2/../../../../pic32mx/lib\libmchp_peripheral_32MX460F512L.a(read_core_timer_lib.o)
 .debug_pubnames
                0x000027a1       0x33 c:/program files (x86)/microchip/xc32/v1.21/bin/../lib/gcc/pic32mx/4.5.2/../../../../pic32mx/lib\libpic32.a(default-bootstrap-exception-handler.o)
 .debug_pubnames
                0x000027d4       0x20 c:/program files (x86)/microchip/xc32/v1.21/bin/../lib/gcc/pic32mx/4.5.2/../../../../pic32mx/lib\libpic32.a(default-on-reset.o)
 .debug_pubnames
                0x000027f4       0x24 c:/program files (x86)/microchip/xc32/v1.21/bin/../lib/gcc/pic32mx/4.5.2/../../../../pic32mx/lib\libpic32.a(default-on-bootstrap.o)
 .debug_pubnames
                0x00002818       0x28 c:/program files (x86)/microchip/xc32/v1.21/bin/../lib/gcc/pic32mx/4.5.2/../../../../pic32mx/lib\libpic32.a(defaultinterrupt.o)
 .debug_pubnames
                0x00002840       0x1c c:/program files (x86)/microchip/xc32/v1.21/bin/../lib/gcc/pic32mx/4.5.2/../../../../pic32mx/lib\libm.a(w_sqrtf.o)
 .debug_pubnames
                0x0000285c       0x32 c:/program files (x86)/microchip/xc32/v1.21/bin/../lib/gcc/pic32mx/4.5.2/../../../../pic32mx/lib\libc.a(malloc.o)
 .debug_pubnames
                0x0000288e       0x5c c:/program files (x86)/microchip/xc32/v1.21/bin/../lib/gcc/pic32mx/4.5.2/../../../../pic32mx/lib\libpic32.a(sbrk.o)

.debug_info     0x00000000    0x45b0f
 *(.debug_info .gnu.linkonce.wi.*)
 .debug_info    0x00000000     0x28bb build/C32_PIC32MX460F512L/production/graphics/drivers/ILI9341.o
 .debug_info    0x000028bb      0xf3b build/C32_PIC32MX460F512L/production/graphics/AnalogClock.o
 .debug_info    0x000037f6     0x1ff8 build/C32_PIC32MX460F512L/production/graphics/Button.o
 .debug_info    0x000057ee      0xf35 build/C32_PIC32MX460F512L/production/graphics/Chart.o
 .debug_info    0x00006723     0x1cbd build/C32_PIC32MX460F512L/production/graphics/CheckBox.o
 .debug_info    0x000083e0     0x1be8 build/C32_PIC32MX460F512L/production/graphics/DigitalMeter.o
 .debug_info    0x00009fc8     0x1d97 build/C32_PIC32MX460F512L/production/graphics/EditBox.o
 .debug_info    0x0000bd5f     0x1f7e build/C32_PIC32MX460F512L/production/graphics/GOL.o
 .debug_info    0x0000dcdd      0x382 build/C32_PIC32MX460F512L/production/graphics/GOLSchemeDefault.o
 .debug_info    0x0000e05f      0xf34 build/C32_PIC32MX460F512L/production/graphics/Grid.o
 .debug_info    0x0000ef93     0x1bcc build/C32_PIC32MX460F512L/production/graphics/GroupBox.o
 .debug_info    0x00010b5f     0x206c build/C32_PIC32MX460F512L/production/graphics/ListBox.o
 .debug_info    0x00012bcb     0x2616 build/C32_PIC32MX460F512L/production/graphics/Meter.o
 .debug_info    0x000151e1      0xf37 build/C32_PIC32MX460F512L/production/graphics/Palette.o
 .debug_info    0x00016118     0x1a91 build/C32_PIC32MX460F512L/production/graphics/Picture.o
 .debug_info    0x00017ba9     0x3603 build/C32_PIC32MX460F512L/production/graphics/Primitive.o
 .debug_info    0x0001b1ac     0x1c86 build/C32_PIC32MX460F512L/production/graphics/ProgressBar.o
 .debug_info    0x0001ce32     0x22f3 build/C32_PIC32MX460F512L/production/graphics/RadioButton.o
 .debug_info    0x0001f125     0x1e08 build/C32_PIC32MX460F512L/production/graphics/RoundDial.o
 .debug_info    0x00020f2d     0x2589 build/C32_PIC32MX460F512L/production/graphics/Slider.o
 .debug_info    0x000234b6     0x1a87 build/C32_PIC32MX460F512L/production/graphics/StaticText.o
 .debug_info    0x00024f3d        0x0 build/C32_PIC32MX460F512L/production/graphics/Template.o
 .debug_info    0x00024f3d      0xf39 build/C32_PIC32MX460F512L/production/graphics/TextEntry.o
 .debug_info    0x00025e76      0xf3b build/C32_PIC32MX460F512L/production/graphics/Transitions.o
 .debug_info    0x00026db1      0xf40 build/C32_PIC32MX460F512L/production/graphics/Transitions_weak.o
 .debug_info    0x00027cf1     0x1bef build/C32_PIC32MX460F512L/production/graphics/Window.o
 .debug_info    0x000298e0      0xf39 build/C32_PIC32MX460F512L/production/configuration_bits.o
 .debug_info    0x0002a819     0x106d build/C32_PIC32MX460F512L/production/exceptions.o
 .debug_info    0x0002b886      0xf31 build/C32_PIC32MX460F512L/production/interrupts.o
 .debug_info    0x0002c7b7      0xf2d build/C32_PIC32MX460F512L/production/system.o
 .debug_info    0x0002d6e4      0xf42 build/C32_PIC32MX460F512L/production/user.o
 .debug_info    0x0002e626     0x100a build/C32_PIC32MX460F512L/production/TimeDelay.o
 .debug_info    0x0002f630      0xf2b build/C32_PIC32MX460F512L/production/Beep.o
 .debug_info    0x0003055b     0x1b9e build/C32_PIC32MX460F512L/production/CustomControlDemo.o
 .debug_info    0x000320f9     0x16ea build/C32_PIC32MX460F512L/production/TouchScreen.o
 .debug_info    0x000337e3     0x13f5 build/C32_PIC32MX460F512L/production/drv_spi.o
 .debug_info    0x00034bd8     0x157c build/C32_PIC32MX460F512L/production/rtcc.o
 .debug_info    0x00036154     0x2bec build/C32_PIC32MX460F512L/production/InternalResourceXC32.o
 .debug_info    0x00038d40      0xf2b build/C32_PIC32MX460F512L/production/cpld.o
 .debug_info    0x00039c6b     0x1fe2 build/C32_PIC32MX460F512L/production/TouchScreenResistive.o
 .debug_info    0x0003bc4d     0x753c build/C32_PIC32MX460F512L/production/MainDemo.o
 .debug_info    0x00043189     0x195c build/C32_PIC32MX460F512L/production/SST25VF016.o
 .debug_info    0x00044ae5       0xbf c:/program files (x86)/microchip/xc32/v1.21/bin/../lib/gcc/pic32mx/4.5.2/../../../../pic32mx/lib\libmchp_peripheral_32MX460F512L.a(pcache.o)
 .debug_info    0x00044ba4       0xb6 c:/program files (x86)/microchip/xc32/v1.21/bin/../lib/gcc/pic32mx/4.5.2/../../../../pic32mx/lib\libmchp_peripheral_32MX460F512L.a(int_disable_interrupts_lib.o)
 .debug_info    0x00044c5a       0xb6 c:/program files (x86)/microchip/xc32/v1.21/bin/../lib/gcc/pic32mx/4.5.2/../../../../pic32mx/lib\libmchp_peripheral_32MX460F512L.a(int_restore_interrupts_lib.o)
 .debug_info    0x00044d10       0xbc c:/program files (x86)/microchip/xc32/v1.21/bin/../lib/gcc/pic32mx/4.5.2/../../../../pic32mx/lib\libmchp_peripheral_32MX460F512L.a(int_enable_mv_int_lib.o)
 .debug_info    0x00044dcc      0x10c c:/program files (x86)/microchip/xc32/v1.21/bin/../lib/gcc/pic32mx/4.5.2/../../../../pic32mx/lib\libmchp_peripheral_32MX460F512L.a(rtcc_init_lib.o)
 .debug_info    0x00044ed8       0xa5 c:/program files (x86)/microchip/xc32/v1.21/bin/../lib/gcc/pic32mx/4.5.2/../../../../pic32mx/lib\libmchp_peripheral_32MX460F512L.a(rtcc_set_date_lib.o)
 .debug_info    0x00044f7d       0xa5 c:/program files (x86)/microchip/xc32/v1.21/bin/../lib/gcc/pic32mx/4.5.2/../../../../pic32mx/lib\libmchp_peripheral_32MX460F512L.a(rtcc_set_time_lib.o)
 .debug_info    0x00045022       0xb4 c:/program files (x86)/microchip/xc32/v1.21/bin/../lib/gcc/pic32mx/4.5.2/../../../../pic32mx/lib\libmchp_peripheral_32MX460F512L.a(int_enable_interrupts_lib.o)
 .debug_info    0x000450d6      0x196 c:/program files (x86)/microchip/xc32/v1.21/bin/../lib/gcc/pic32mx/4.5.2/../../../../pic32mx/lib\libmchp_peripheral_32MX460F512L.a(int_tbl_lib.o)
 .debug_info    0x0004526c      0x10f c:/program files (x86)/microchip/xc32/v1.21/bin/../lib/gcc/pic32mx/4.5.2/../../../../pic32mx/lib\libmchp_peripheral_32MX460F512L.a(_rtcc_set_time_and_date_lib.o)
 .debug_info    0x0004537b       0xe7 c:/program files (x86)/microchip/xc32/v1.21/bin/../lib/gcc/pic32mx/4.5.2/../../../../pic32mx/lib\libmchp_peripheral_32MX460F512L.a(_rtcc_wait_clock_off_lib.o)
 .debug_info    0x00045462       0xaa c:/program files (x86)/microchip/xc32/v1.21/bin/../lib/gcc/pic32mx/4.5.2/../../../../pic32mx/lib\libmchp_peripheral_32MX460F512L.a(read_core_timer_lib.o)
 .debug_info    0x0004550c       0xe8 c:/program files (x86)/microchip/xc32/v1.21/bin/../lib/gcc/pic32mx/4.5.2/../../../../pic32mx/lib\libpic32.a(default-bootstrap-exception-handler.o)
 .debug_info    0x000455f4       0xc2 c:/program files (x86)/microchip/xc32/v1.21/bin/../lib/gcc/pic32mx/4.5.2/../../../../pic32mx/lib\libpic32.a(default-on-reset.o)
 .debug_info    0x000456b6       0xca c:/program files (x86)/microchip/xc32/v1.21/bin/../lib/gcc/pic32mx/4.5.2/../../../../pic32mx/lib\libpic32.a(default-on-bootstrap.o)
 .debug_info    0x00045780       0xdc c:/program files (x86)/microchip/xc32/v1.21/bin/../lib/gcc/pic32mx/4.5.2/../../../../pic32mx/lib\libpic32.a(defaultinterrupt.o)
 .debug_info    0x0004585c       0xb2 c:/program files (x86)/microchip/xc32/v1.21/bin/../lib/gcc/pic32mx/4.5.2/../../../../pic32mx/lib\libm.a(w_sqrtf.o)
 .debug_info    0x0004590e        0x0 c:/program files (x86)/microchip/xc32/v1.21/bin/../lib/gcc/pic32mx/4.5.2/../../../../pic32mx/lib\libm.a(s_lib_ver.o)
 .debug_info    0x0004590e        0x0 c:/program files (x86)/microchip/xc32/v1.21/bin/../lib/gcc/pic32mx/4.5.2/../../../../pic32mx/lib\libpic32.a(errno.o)
 .debug_info    0x0004590e       0xe6 c:/program files (x86)/microchip/xc32/v1.21/bin/../lib/gcc/pic32mx/4.5.2/../../../../pic32mx/lib\libc.a(malloc.o)
 .debug_info    0x000459f4      0x11b c:/program files (x86)/microchip/xc32/v1.21/bin/../lib/gcc/pic32mx/4.5.2/../../../../pic32mx/lib\libpic32.a(sbrk.o)

.debug_abbrev   0x00000000     0x5621
 *(.debug_abbrev)
 .debug_abbrev  0x00000000      0x319 build/C32_PIC32MX460F512L/production/graphics/drivers/ILI9341.o
 .debug_abbrev  0x00000319      0x166 build/C32_PIC32MX460F512L/production/graphics/AnalogClock.o
 .debug_abbrev  0x0000047f      0x321 build/C32_PIC32MX460F512L/production/graphics/Button.o
 .debug_abbrev  0x000007a0      0x166 build/C32_PIC32MX460F512L/production/graphics/Chart.o
 .debug_abbrev  0x00000906      0x1fb build/C32_PIC32MX460F512L/production/graphics/CheckBox.o
 .debug_abbrev  0x00000b01      0x237 build/C32_PIC32MX460F512L/production/graphics/DigitalMeter.o
 .debug_abbrev  0x00000d38      0x23f build/C32_PIC32MX460F512L/production/graphics/EditBox.o
 .debug_abbrev  0x00000f77      0x313 build/C32_PIC32MX460F512L/production/graphics/GOL.o
 .debug_abbrev  0x0000128a       0xc0 build/C32_PIC32MX460F512L/production/graphics/GOLSchemeDefault.o
 .debug_abbrev  0x0000134a      0x166 build/C32_PIC32MX460F512L/production/graphics/Grid.o
 .debug_abbrev  0x000014b0      0x1fb build/C32_PIC32MX460F512L/production/graphics/GroupBox.o
 .debug_abbrev  0x000016ab      0x2a1 build/C32_PIC32MX460F512L/production/graphics/ListBox.o
 .debug_abbrev  0x0000194c      0x2c6 build/C32_PIC32MX460F512L/production/graphics/Meter.o
 .debug_abbrev  0x00001c12      0x166 build/C32_PIC32MX460F512L/production/graphics/Palette.o
 .debug_abbrev  0x00001d78      0x1e4 build/C32_PIC32MX460F512L/production/graphics/Picture.o
 .debug_abbrev  0x00001f5c      0x2aa build/C32_PIC32MX460F512L/production/graphics/Primitive.o
 .debug_abbrev  0x00002206      0x204 build/C32_PIC32MX460F512L/production/graphics/ProgressBar.o
 .debug_abbrev  0x0000240a      0x275 build/C32_PIC32MX460F512L/production/graphics/RadioButton.o
 .debug_abbrev  0x0000267f      0x259 build/C32_PIC32MX460F512L/production/graphics/RoundDial.o
 .debug_abbrev  0x000028d8      0x2af build/C32_PIC32MX460F512L/production/graphics/Slider.o
 .debug_abbrev  0x00002b87      0x1fb build/C32_PIC32MX460F512L/production/graphics/StaticText.o
 .debug_abbrev  0x00002d82        0x1 build/C32_PIC32MX460F512L/production/graphics/Template.o
 .debug_abbrev  0x00002d83      0x166 build/C32_PIC32MX460F512L/production/graphics/TextEntry.o
 .debug_abbrev  0x00002ee9      0x166 build/C32_PIC32MX460F512L/production/graphics/Transitions.o
 .debug_abbrev  0x0000304f      0x166 build/C32_PIC32MX460F512L/production/graphics/Transitions_weak.o
 .debug_abbrev  0x000031b5      0x1fb build/C32_PIC32MX460F512L/production/graphics/Window.o
 .debug_abbrev  0x000033b0      0x166 build/C32_PIC32MX460F512L/production/configuration_bits.o
 .debug_abbrev  0x00003516      0x1a2 build/C32_PIC32MX460F512L/production/exceptions.o
 .debug_abbrev  0x000036b8      0x166 build/C32_PIC32MX460F512L/production/interrupts.o
 .debug_abbrev  0x0000381e      0x166 build/C32_PIC32MX460F512L/production/system.o
 .debug_abbrev  0x00003984      0x17b build/C32_PIC32MX460F512L/production/user.o
 .debug_abbrev  0x00003aff      0x19b build/C32_PIC32MX460F512L/production/TimeDelay.o
 .debug_abbrev  0x00003c9a      0x166 build/C32_PIC32MX460F512L/production/Beep.o
 .debug_abbrev  0x00003e00      0x237 build/C32_PIC32MX460F512L/production/CustomControlDemo.o
 .debug_abbrev  0x00004037      0x242 build/C32_PIC32MX460F512L/production/TouchScreen.o
 .debug_abbrev  0x00004279      0x21a build/C32_PIC32MX460F512L/production/drv_spi.o
 .debug_abbrev  0x00004493      0x285 build/C32_PIC32MX460F512L/production/rtcc.o
 .debug_abbrev  0x00004718      0x1dd build/C32_PIC32MX460F512L/production/InternalResourceXC32.o
 .debug_abbrev  0x000048f5      0x166 build/C32_PIC32MX460F512L/production/cpld.o
 .debug_abbrev  0x00004a5b      0x263 build/C32_PIC32MX460F512L/production/TouchScreenResistive.o
 .debug_abbrev  0x00004cbe      0x3c3 build/C32_PIC32MX460F512L/production/MainDemo.o
 .debug_abbrev  0x00005081      0x269 build/C32_PIC32MX460F512L/production/SST25VF016.o
 .debug_abbrev  0x000052ea       0x25 c:/program files (x86)/microchip/xc32/v1.21/bin/../lib/gcc/pic32mx/4.5.2/../../../../pic32mx/lib\libmchp_peripheral_32MX460F512L.a(pcache.o)
 .debug_abbrev  0x0000530f       0x25 c:/program files (x86)/microchip/xc32/v1.21/bin/../lib/gcc/pic32mx/4.5.2/../../../../pic32mx/lib\libmchp_peripheral_32MX460F512L.a(int_disable_interrupts_lib.o)
 .debug_abbrev  0x00005334       0x25 c:/program files (x86)/microchip/xc32/v1.21/bin/../lib/gcc/pic32mx/4.5.2/../../../../pic32mx/lib\libmchp_peripheral_32MX460F512L.a(int_restore_interrupts_lib.o)
 .debug_abbrev  0x00005359       0x25 c:/program files (x86)/microchip/xc32/v1.21/bin/../lib/gcc/pic32mx/4.5.2/../../../../pic32mx/lib\libmchp_peripheral_32MX460F512L.a(int_enable_mv_int_lib.o)
 .debug_abbrev  0x0000537e       0x41 c:/program files (x86)/microchip/xc32/v1.21/bin/../lib/gcc/pic32mx/4.5.2/../../../../pic32mx/lib\libmchp_peripheral_32MX460F512L.a(rtcc_init_lib.o)
 .debug_abbrev  0x000053bf       0x25 c:/program files (x86)/microchip/xc32/v1.21/bin/../lib/gcc/pic32mx/4.5.2/../../../../pic32mx/lib\libmchp_peripheral_32MX460F512L.a(rtcc_set_date_lib.o)
 .debug_abbrev  0x000053e4       0x25 c:/program files (x86)/microchip/xc32/v1.21/bin/../lib/gcc/pic32mx/4.5.2/../../../../pic32mx/lib\libmchp_peripheral_32MX460F512L.a(rtcc_set_time_lib.o)
 .debug_abbrev  0x00005409       0x25 c:/program files (x86)/microchip/xc32/v1.21/bin/../lib/gcc/pic32mx/4.5.2/../../../../pic32mx/lib\libmchp_peripheral_32MX460F512L.a(int_enable_interrupts_lib.o)
 .debug_abbrev  0x0000542e       0x25 c:/program files (x86)/microchip/xc32/v1.21/bin/../lib/gcc/pic32mx/4.5.2/../../../../pic32mx/lib\libmchp_peripheral_32MX460F512L.a(int_tbl_lib.o)
 .debug_abbrev  0x00005453       0x41 c:/program files (x86)/microchip/xc32/v1.21/bin/../lib/gcc/pic32mx/4.5.2/../../../../pic32mx/lib\libmchp_peripheral_32MX460F512L.a(_rtcc_set_time_and_date_lib.o)
 .debug_abbrev  0x00005494       0x34 c:/program files (x86)/microchip/xc32/v1.21/bin/../lib/gcc/pic32mx/4.5.2/../../../../pic32mx/lib\libmchp_peripheral_32MX460F512L.a(_rtcc_wait_clock_off_lib.o)
 .debug_abbrev  0x000054c8       0x25 c:/program files (x86)/microchip/xc32/v1.21/bin/../lib/gcc/pic32mx/4.5.2/../../../../pic32mx/lib\libmchp_peripheral_32MX460F512L.a(read_core_timer_lib.o)
 .debug_abbrev  0x000054ed       0x25 c:/program files (x86)/microchip/xc32/v1.21/bin/../lib/gcc/pic32mx/4.5.2/../../../../pic32mx/lib\libpic32.a(default-bootstrap-exception-handler.o)
 .debug_abbrev  0x00005512       0x25 c:/program files (x86)/microchip/xc32/v1.21/bin/../lib/gcc/pic32mx/4.5.2/../../../../pic32mx/lib\libpic32.a(default-on-reset.o)
 .debug_abbrev  0x00005537       0x25 c:/program files (x86)/microchip/xc32/v1.21/bin/../lib/gcc/pic32mx/4.5.2/../../../../pic32mx/lib\libpic32.a(default-on-bootstrap.o)
 .debug_abbrev  0x0000555c       0x25 c:/program files (x86)/microchip/xc32/v1.21/bin/../lib/gcc/pic32mx/4.5.2/../../../../pic32mx/lib\libpic32.a(defaultinterrupt.o)
 .debug_abbrev  0x00005581       0x25 c:/program files (x86)/microchip/xc32/v1.21/bin/../lib/gcc/pic32mx/4.5.2/../../../../pic32mx/lib\libm.a(w_sqrtf.o)
 .debug_abbrev  0x000055a6        0x1 c:/program files (x86)/microchip/xc32/v1.21/bin/../lib/gcc/pic32mx/4.5.2/../../../../pic32mx/lib\libm.a(s_lib_ver.o)
 .debug_abbrev  0x000055a7        0x1 c:/program files (x86)/microchip/xc32/v1.21/bin/../lib/gcc/pic32mx/4.5.2/../../../../pic32mx/lib\libpic32.a(errno.o)
 .debug_abbrev  0x000055a8       0x41 c:/program files (x86)/microchip/xc32/v1.21/bin/../lib/gcc/pic32mx/4.5.2/../../../../pic32mx/lib\libc.a(malloc.o)
 .debug_abbrev  0x000055e9       0x38 c:/program files (x86)/microchip/xc32/v1.21/bin/../lib/gcc/pic32mx/4.5.2/../../../../pic32mx/lib\libpic32.a(sbrk.o)

.debug_line     0x00000000     0x8795
 *(.debug_line)
 .debug_line    0x00000000      0x4e2 build/C32_PIC32MX460F512L/production/graphics/drivers/ILI9341.o
 .debug_line    0x000004e2      0x18e build/C32_PIC32MX460F512L/production/graphics/AnalogClock.o
 .debug_line    0x00000670      0x43c build/C32_PIC32MX460F512L/production/graphics/Button.o
 .debug_line    0x00000aac      0x18e build/C32_PIC32MX460F512L/production/graphics/Chart.o
 .debug_line    0x00000c3a      0x2f0 build/C32_PIC32MX460F512L/production/graphics/CheckBox.o
 .debug_line    0x00000f2a      0x2e6 build/C32_PIC32MX460F512L/production/graphics/DigitalMeter.o
 .debug_line    0x00001210      0x30b build/C32_PIC32MX460F512L/production/graphics/EditBox.o
 .debug_line    0x0000151b      0x45a build/C32_PIC32MX460F512L/production/graphics/GOL.o
 .debug_line    0x00001975       0xdd build/C32_PIC32MX460F512L/production/graphics/GOLSchemeDefault.o
 .debug_line    0x00001a52      0x18e build/C32_PIC32MX460F512L/production/graphics/Grid.o
 .debug_line    0x00001be0      0x2d6 build/C32_PIC32MX460F512L/production/graphics/GroupBox.o
 .debug_line    0x00001eb6      0x414 build/C32_PIC32MX460F512L/production/graphics/ListBox.o
 .debug_line    0x000022ca      0x427 build/C32_PIC32MX460F512L/production/graphics/Meter.o
 .debug_line    0x000026f1      0x18e build/C32_PIC32MX460F512L/production/graphics/Palette.o
 .debug_line    0x0000287f      0x279 build/C32_PIC32MX460F512L/production/graphics/Picture.o
 .debug_line    0x00002af8      0x9c1 build/C32_PIC32MX460F512L/production/graphics/Primitive.o
 .debug_line    0x000034b9      0x31d build/C32_PIC32MX460F512L/production/graphics/ProgressBar.o
 .debug_line    0x000037d6      0x328 build/C32_PIC32MX460F512L/production/graphics/RadioButton.o
 .debug_line    0x00003afe      0x38c build/C32_PIC32MX460F512L/production/graphics/RoundDial.o
 .debug_line    0x00003e8a      0x438 build/C32_PIC32MX460F512L/production/graphics/Slider.o
 .debug_line    0x000042c2      0x2c0 build/C32_PIC32MX460F512L/production/graphics/StaticText.o
 .debug_line    0x00004582        0x0 build/C32_PIC32MX460F512L/production/graphics/Template.o
 .debug_line    0x00004582      0x18e build/C32_PIC32MX460F512L/production/graphics/TextEntry.o
 .debug_line    0x00004710      0x18e build/C32_PIC32MX460F512L/production/graphics/Transitions.o
 .debug_line    0x0000489e      0x18e build/C32_PIC32MX460F512L/production/graphics/Transitions_weak.o
 .debug_line    0x00004a2c      0x2cb build/C32_PIC32MX460F512L/production/graphics/Window.o
 .debug_line    0x00004cf7      0x18e build/C32_PIC32MX460F512L/production/configuration_bits.o
 .debug_line    0x00004e85      0x1b6 build/C32_PIC32MX460F512L/production/exceptions.o
 .debug_line    0x0000503b      0x18e build/C32_PIC32MX460F512L/production/interrupts.o
 .debug_line    0x000051c9      0x18e build/C32_PIC32MX460F512L/production/system.o
 .debug_line    0x00005357      0x1a8 build/C32_PIC32MX460F512L/production/user.o
 .debug_line    0x000054ff      0x1cd build/C32_PIC32MX460F512L/production/TimeDelay.o
 .debug_line    0x000056cc      0x18e build/C32_PIC32MX460F512L/production/Beep.o
 .debug_line    0x0000585a      0x28a build/C32_PIC32MX460F512L/production/CustomControlDemo.o
 .debug_line    0x00005ae4      0x2b5 build/C32_PIC32MX460F512L/production/TouchScreen.o
 .debug_line    0x00005d99      0x206 build/C32_PIC32MX460F512L/production/drv_spi.o
 .debug_line    0x00005f9f      0x33b build/C32_PIC32MX460F512L/production/rtcc.o
 .debug_line    0x000062da      0x1c0 build/C32_PIC32MX460F512L/production/InternalResourceXC32.o
 .debug_line    0x0000649a      0x18e build/C32_PIC32MX460F512L/production/cpld.o
 .debug_line    0x00006628      0x39b build/C32_PIC32MX460F512L/production/TouchScreenResistive.o
 .debug_line    0x000069c3     0x1086 build/C32_PIC32MX460F512L/production/MainDemo.o
 .debug_line    0x00007a49      0x336 build/C32_PIC32MX460F512L/production/SST25VF016.o
 .debug_line    0x00007d7f       0x62 c:/program files (x86)/microchip/xc32/v1.21/bin/../lib/gcc/pic32mx/4.5.2/../../../../pic32mx/lib\libmchp_peripheral_32MX460F512L.a(pcache.o)
 .debug_line    0x00007de1       0x73 c:/program files (x86)/microchip/xc32/v1.21/bin/../lib/gcc/pic32mx/4.5.2/../../../../pic32mx/lib\libmchp_peripheral_32MX460F512L.a(int_disable_interrupts_lib.o)
 .debug_line    0x00007e54       0x73 c:/program files (x86)/microchip/xc32/v1.21/bin/../lib/gcc/pic32mx/4.5.2/../../../../pic32mx/lib\libmchp_peripheral_32MX460F512L.a(int_restore_interrupts_lib.o)
 .debug_line    0x00007ec7       0x6e c:/program files (x86)/microchip/xc32/v1.21/bin/../lib/gcc/pic32mx/4.5.2/../../../../pic32mx/lib\libmchp_peripheral_32MX460F512L.a(int_enable_mv_int_lib.o)
 .debug_line    0x00007f35       0xd6 c:/program files (x86)/microchip/xc32/v1.21/bin/../lib/gcc/pic32mx/4.5.2/../../../../pic32mx/lib\libmchp_peripheral_32MX460F512L.a(rtcc_init_lib.o)
 .debug_line    0x0000800b       0x6b c:/program files (x86)/microchip/xc32/v1.21/bin/../lib/gcc/pic32mx/4.5.2/../../../../pic32mx/lib\libmchp_peripheral_32MX460F512L.a(rtcc_set_date_lib.o)
 .debug_line    0x00008076       0x6b c:/program files (x86)/microchip/xc32/v1.21/bin/../lib/gcc/pic32mx/4.5.2/../../../../pic32mx/lib\libmchp_peripheral_32MX460F512L.a(rtcc_set_time_lib.o)
 .debug_line    0x000080e1       0x72 c:/program files (x86)/microchip/xc32/v1.21/bin/../lib/gcc/pic32mx/4.5.2/../../../../pic32mx/lib\libmchp_peripheral_32MX460F512L.a(int_enable_interrupts_lib.o)
 .debug_line    0x00008153       0x64 c:/program files (x86)/microchip/xc32/v1.21/bin/../lib/gcc/pic32mx/4.5.2/../../../../pic32mx/lib\libmchp_peripheral_32MX460F512L.a(int_tbl_lib.o)
 .debug_line    0x000081b7       0xe4 c:/program files (x86)/microchip/xc32/v1.21/bin/../lib/gcc/pic32mx/4.5.2/../../../../pic32mx/lib\libmchp_peripheral_32MX460F512L.a(_rtcc_set_time_and_date_lib.o)
 .debug_line    0x0000829b       0xbd c:/program files (x86)/microchip/xc32/v1.21/bin/../lib/gcc/pic32mx/4.5.2/../../../../pic32mx/lib\libmchp_peripheral_32MX460F512L.a(_rtcc_wait_clock_off_lib.o)
 .debug_line    0x00008358       0x6e c:/program files (x86)/microchip/xc32/v1.21/bin/../lib/gcc/pic32mx/4.5.2/../../../../pic32mx/lib\libmchp_peripheral_32MX460F512L.a(read_core_timer_lib.o)
 .debug_line    0x000083c6       0x9d c:/program files (x86)/microchip/xc32/v1.21/bin/../lib/gcc/pic32mx/4.5.2/../../../../pic32mx/lib\libpic32.a(default-bootstrap-exception-handler.o)
 .debug_line    0x00008463       0x8a c:/program files (x86)/microchip/xc32/v1.21/bin/../lib/gcc/pic32mx/4.5.2/../../../../pic32mx/lib\libpic32.a(default-on-reset.o)
 .debug_line    0x000084ed       0x8e c:/program files (x86)/microchip/xc32/v1.21/bin/../lib/gcc/pic32mx/4.5.2/../../../../pic32mx/lib\libpic32.a(default-on-bootstrap.o)
 .debug_line    0x0000857b       0x9c c:/program files (x86)/microchip/xc32/v1.21/bin/../lib/gcc/pic32mx/4.5.2/../../../../pic32mx/lib\libpic32.a(defaultinterrupt.o)
 .debug_line    0x00008617       0x7e c:/program files (x86)/microchip/xc32/v1.21/bin/../lib/gcc/pic32mx/4.5.2/../../../../pic32mx/lib\libm.a(w_sqrtf.o)
 .debug_line    0x00008695        0x0 c:/program files (x86)/microchip/xc32/v1.21/bin/../lib/gcc/pic32mx/4.5.2/../../../../pic32mx/lib\libm.a(s_lib_ver.o)
 .debug_line    0x00008695        0x0 c:/program files (x86)/microchip/xc32/v1.21/bin/../lib/gcc/pic32mx/4.5.2/../../../../pic32mx/lib\libpic32.a(errno.o)
 .debug_line    0x00008695       0x82 c:/program files (x86)/microchip/xc32/v1.21/bin/../lib/gcc/pic32mx/4.5.2/../../../../pic32mx/lib\libc.a(malloc.o)
 .debug_line    0x00008717       0x7e c:/program files (x86)/microchip/xc32/v1.21/bin/../lib/gcc/pic32mx/4.5.2/../../../../pic32mx/lib\libpic32.a(sbrk.o)

.debug_frame    0x00000000     0x2390
 *(.debug_frame)
 .debug_frame   0x00000000      0x1d4 build/C32_PIC32MX460F512L/production/graphics/drivers/ILI9341.o
 .debug_frame   0x000001d4       0xdc build/C32_PIC32MX460F512L/production/graphics/Button.o
 .debug_frame   0x000002b0       0x9c build/C32_PIC32MX460F512L/production/graphics/CheckBox.o
 .debug_frame   0x0000034c       0x9c build/C32_PIC32MX460F512L/production/graphics/DigitalMeter.o
 .debug_frame   0x000003e8       0xd4 build/C32_PIC32MX460F512L/production/graphics/EditBox.o
 .debug_frame   0x000004bc      0x1d8 build/C32_PIC32MX460F512L/production/graphics/GOL.o
 .debug_frame   0x00000694       0x80 build/C32_PIC32MX460F512L/production/graphics/GroupBox.o
 .debug_frame   0x00000714      0x148 build/C32_PIC32MX460F512L/production/graphics/ListBox.o
 .debug_frame   0x0000085c       0xc4 build/C32_PIC32MX460F512L/production/graphics/Meter.o
 .debug_frame   0x00000920       0x68 build/C32_PIC32MX460F512L/production/graphics/Picture.o
 .debug_frame   0x00000988      0x464 build/C32_PIC32MX460F512L/production/graphics/Primitive.o
 .debug_frame   0x00000dec       0xbc build/C32_PIC32MX460F512L/production/graphics/ProgressBar.o
 .debug_frame   0x00000ea8       0xd4 build/C32_PIC32MX460F512L/production/graphics/RadioButton.o
 .debug_frame   0x00000f7c       0xbc build/C32_PIC32MX460F512L/production/graphics/RoundDial.o
 .debug_frame   0x00001038      0x144 build/C32_PIC32MX460F512L/production/graphics/Slider.o
 .debug_frame   0x0000117c       0x80 build/C32_PIC32MX460F512L/production/graphics/StaticText.o
 .debug_frame   0x000011fc       0x84 build/C32_PIC32MX460F512L/production/graphics/Window.o
 .debug_frame   0x00001280       0x2c build/C32_PIC32MX460F512L/production/exceptions.o
 .debug_frame   0x000012ac       0x2c build/C32_PIC32MX460F512L/production/user.o
 .debug_frame   0x000012d8       0x48 build/C32_PIC32MX460F512L/production/TimeDelay.o
 .debug_frame   0x00001320       0x80 build/C32_PIC32MX460F512L/production/CustomControlDemo.o
 .debug_frame   0x000013a0       0x9c build/C32_PIC32MX460F512L/production/TouchScreen.o
 .debug_frame   0x0000143c       0x9c build/C32_PIC32MX460F512L/production/drv_spi.o
 .debug_frame   0x000014d8      0x144 build/C32_PIC32MX460F512L/production/rtcc.o
 .debug_frame   0x0000161c      0x144 build/C32_PIC32MX460F512L/production/TouchScreenResistive.o
 .debug_frame   0x00001760      0x6c0 build/C32_PIC32MX460F512L/production/MainDemo.o
 .debug_frame   0x00001e20      0x164 build/C32_PIC32MX460F512L/production/SST25VF016.o
 .debug_frame   0x00001f84       0x30 c:/program files (x86)/microchip/xc32/v1.21/bin/../lib/gcc/pic32mx/4.5.2/../../../../pic32mx/lib\libmchp_peripheral_32MX460F512L.a(pcache.o)
 .debug_frame   0x00001fb4       0x20 c:/program files (x86)/microchip/xc32/v1.21/bin/../lib/gcc/pic32mx/4.5.2/../../../../pic32mx/lib\libmchp_peripheral_32MX460F512L.a(int_disable_interrupts_lib.o)
 .debug_frame   0x00001fd4       0x20 c:/program files (x86)/microchip/xc32/v1.21/bin/../lib/gcc/pic32mx/4.5.2/../../../../pic32mx/lib\libmchp_peripheral_32MX460F512L.a(int_restore_interrupts_lib.o)
 .debug_frame   0x00001ff4       0x28 c:/program files (x86)/microchip/xc32/v1.21/bin/../lib/gcc/pic32mx/4.5.2/../../../../pic32mx/lib\libmchp_peripheral_32MX460F512L.a(int_enable_mv_int_lib.o)
 .debug_frame   0x0000201c       0x2c c:/program files (x86)/microchip/xc32/v1.21/bin/../lib/gcc/pic32mx/4.5.2/../../../../pic32mx/lib\libmchp_peripheral_32MX460F512L.a(rtcc_init_lib.o)
 .debug_frame   0x00002048       0x28 c:/program files (x86)/microchip/xc32/v1.21/bin/../lib/gcc/pic32mx/4.5.2/../../../../pic32mx/lib\libmchp_peripheral_32MX460F512L.a(rtcc_set_date_lib.o)
 .debug_frame   0x00002070       0x28 c:/program files (x86)/microchip/xc32/v1.21/bin/../lib/gcc/pic32mx/4.5.2/../../../../pic32mx/lib\libmchp_peripheral_32MX460F512L.a(rtcc_set_time_lib.o)
 .debug_frame   0x00002098       0x20 c:/program files (x86)/microchip/xc32/v1.21/bin/../lib/gcc/pic32mx/4.5.2/../../../../pic32mx/lib\libmchp_peripheral_32MX460F512L.a(int_enable_interrupts_lib.o)
 .debug_frame   0x000020b8       0xa0 c:/program files (x86)/microchip/xc32/v1.21/bin/../lib/gcc/pic32mx/4.5.2/../../../../pic32mx/lib\libmchp_peripheral_32MX460F512L.a(int_tbl_lib.o)
 .debug_frame   0x00002158       0x30 c:/program files (x86)/microchip/xc32/v1.21/bin/../lib/gcc/pic32mx/4.5.2/../../../../pic32mx/lib\libmchp_peripheral_32MX460F512L.a(_rtcc_set_time_and_date_lib.o)
 .debug_frame   0x00002188       0x48 c:/program files (x86)/microchip/xc32/v1.21/bin/../lib/gcc/pic32mx/4.5.2/../../../../pic32mx/lib\libmchp_peripheral_32MX460F512L.a(_rtcc_wait_clock_off_lib.o)
 .debug_frame   0x000021d0       0x20 c:/program files (x86)/microchip/xc32/v1.21/bin/../lib/gcc/pic32mx/4.5.2/../../../../pic32mx/lib\libmchp_peripheral_32MX460F512L.a(read_core_timer_lib.o)
 .debug_frame   0x000021f0       0x20 c:/program files (x86)/microchip/xc32/v1.21/bin/../lib/gcc/pic32mx/4.5.2/../../../../pic32mx/lib\libpic32.a(default-bootstrap-exception-handler.o)
 .debug_frame   0x00002210       0x20 c:/program files (x86)/microchip/xc32/v1.21/bin/../lib/gcc/pic32mx/4.5.2/../../../../pic32mx/lib\libpic32.a(default-on-reset.o)
 .debug_frame   0x00002230       0x20 c:/program files (x86)/microchip/xc32/v1.21/bin/../lib/gcc/pic32mx/4.5.2/../../../../pic32mx/lib\libpic32.a(default-on-bootstrap.o)
 .debug_frame   0x00002250       0x20 c:/program files (x86)/microchip/xc32/v1.21/bin/../lib/gcc/pic32mx/4.5.2/../../../../pic32mx/lib\libpic32.a(defaultinterrupt.o)
 .debug_frame   0x00002270       0x28 c:/program files (x86)/microchip/xc32/v1.21/bin/../lib/gcc/pic32mx/4.5.2/../../../../pic32mx/lib\libm.a(w_sqrtf.o)
 .debug_frame   0x00002298       0x6c c:/program files (x86)/microchip/xc32/v1.21/bin/../lib/gcc/pic32mx/4.5.2/../../../../pic32mx/lib\libc.a(malloc.o)
 .debug_frame   0x00002304       0x8c c:/program files (x86)/microchip/xc32/v1.21/bin/../lib/gcc/pic32mx/4.5.2/../../../../pic32mx/lib\libpic32.a(sbrk.o)

.debug_str      0x00000000     0x3abc
 *(.debug_str)
 .debug_str     0x00000000      0x175 build/C32_PIC32MX460F512L/production/graphics/drivers/ILI9341.o
 .debug_str     0x00000175       0xe2 build/C32_PIC32MX460F512L/production/graphics/AnalogClock.o
 .debug_str     0x00000257      0x194 build/C32_PIC32MX460F512L/production/graphics/Button.o
 .debug_str     0x000003eb       0xe2 build/C32_PIC32MX460F512L/production/graphics/Chart.o
 .debug_str     0x000004cd      0x163 build/C32_PIC32MX460F512L/production/graphics/CheckBox.o
 .debug_str     0x00000630      0x132 build/C32_PIC32MX460F512L/production/graphics/DigitalMeter.o
 .debug_str     0x00000762      0x159 build/C32_PIC32MX460F512L/production/graphics/EditBox.o
 .debug_str     0x000008bb      0x20d build/C32_PIC32MX460F512L/production/graphics/GOL.o
 .debug_str     0x00000ac8        0xf build/C32_PIC32MX460F512L/production/graphics/GOLSchemeDefault.o
 .debug_str     0x00000ad7       0xe2 build/C32_PIC32MX460F512L/production/graphics/Grid.o
 .debug_str     0x00000bb9      0x107 build/C32_PIC32MX460F512L/production/graphics/GroupBox.o
 .debug_str     0x00000cc0      0x17c build/C32_PIC32MX460F512L/production/graphics/ListBox.o
 .debug_str     0x00000e3c      0x1b5 build/C32_PIC32MX460F512L/production/graphics/Meter.o
 .debug_str     0x00000ff1       0xe2 build/C32_PIC32MX460F512L/production/graphics/Palette.o
 .debug_str     0x000010d3       0xff build/C32_PIC32MX460F512L/production/graphics/Picture.o
 .debug_str     0x000011d2      0x292 build/C32_PIC32MX460F512L/production/graphics/Primitive.o
 .debug_str     0x00001464      0x159 build/C32_PIC32MX460F512L/production/graphics/ProgressBar.o
 .debug_str     0x000015bd      0x179 build/C32_PIC32MX460F512L/production/graphics/RadioButton.o
 .debug_str     0x00001736      0x160 build/C32_PIC32MX460F512L/production/graphics/RoundDial.o
 .debug_str     0x00001896      0x18a build/C32_PIC32MX460F512L/production/graphics/Slider.o
 .debug_str     0x00001a20      0x120 build/C32_PIC32MX460F512L/production/graphics/StaticText.o
 .debug_str     0x00001b40        0x0 build/C32_PIC32MX460F512L/production/graphics/Template.o
 .debug_str     0x00001b40       0xe2 build/C32_PIC32MX460F512L/production/graphics/TextEntry.o
 .debug_str     0x00001c22       0xe2 build/C32_PIC32MX460F512L/production/graphics/Transitions.o
 .debug_str     0x00001d04       0xe2 build/C32_PIC32MX460F512L/production/graphics/Transitions_weak.o
 .debug_str     0x00001de6      0x172 build/C32_PIC32MX460F512L/production/graphics/Window.o
 .debug_str     0x00001f58       0xe2 build/C32_PIC32MX460F512L/production/configuration_bits.o
 .debug_str     0x0000203a       0xe2 build/C32_PIC32MX460F512L/production/exceptions.o
 .debug_str     0x0000211c       0xe2 build/C32_PIC32MX460F512L/production/interrupts.o
 .debug_str     0x000021fe       0xe2 build/C32_PIC32MX460F512L/production/system.o
 .debug_str     0x000022e0       0xe2 build/C32_PIC32MX460F512L/production/user.o
 .debug_str     0x000023c2       0xe2 build/C32_PIC32MX460F512L/production/TimeDelay.o
 .debug_str     0x000024a4       0xe2 build/C32_PIC32MX460F512L/production/Beep.o
 .debug_str     0x00002586      0x16d build/C32_PIC32MX460F512L/production/CustomControlDemo.o
 .debug_str     0x000026f3      0x137 build/C32_PIC32MX460F512L/production/TouchScreen.o
 .debug_str     0x0000282a      0x11f build/C32_PIC32MX460F512L/production/drv_spi.o
 .debug_str     0x00002949      0x10b build/C32_PIC32MX460F512L/production/rtcc.o
 .debug_str     0x00002a54      0x198 build/C32_PIC32MX460F512L/production/InternalResourceXC32.o
 .debug_str     0x00002bec       0xe2 build/C32_PIC32MX460F512L/production/cpld.o
 .debug_str     0x00002cce      0x191 build/C32_PIC32MX460F512L/production/TouchScreenResistive.o
 .debug_str     0x00002e5f      0xb63 build/C32_PIC32MX460F512L/production/MainDemo.o
 .debug_str     0x000039c2       0xfa build/C32_PIC32MX460F512L/production/SST25VF016.o
 .debug_str     0x00003abc        0x0 c:/program files (x86)/microchip/xc32/v1.21/bin/../lib/gcc/pic32mx/4.5.2/../../../../pic32mx/lib\libmchp_peripheral_32MX460F512L.a(pcache.o)
 .debug_str     0x00003abc        0x0 c:/program files (x86)/microchip/xc32/v1.21/bin/../lib/gcc/pic32mx/4.5.2/../../../../pic32mx/lib\libmchp_peripheral_32MX460F512L.a(int_disable_interrupts_lib.o)
 .debug_str     0x00003abc        0x0 c:/program files (x86)/microchip/xc32/v1.21/bin/../lib/gcc/pic32mx/4.5.2/../../../../pic32mx/lib\libmchp_peripheral_32MX460F512L.a(int_restore_interrupts_lib.o)
 .debug_str     0x00003abc        0x0 c:/program files (x86)/microchip/xc32/v1.21/bin/../lib/gcc/pic32mx/4.5.2/../../../../pic32mx/lib\libmchp_peripheral_32MX460F512L.a(int_enable_mv_int_lib.o)
 .debug_str     0x00003abc        0x0 c:/program files (x86)/microchip/xc32/v1.21/bin/../lib/gcc/pic32mx/4.5.2/../../../../pic32mx/lib\libmchp_peripheral_32MX460F512L.a(rtcc_init_lib.o)
 .debug_str     0x00003abc        0x0 c:/program files (x86)/microchip/xc32/v1.21/bin/../lib/gcc/pic32mx/4.5.2/../../../../pic32mx/lib\libmchp_peripheral_32MX460F512L.a(rtcc_set_date_lib.o)
 .debug_str     0x00003abc        0x0 c:/program files (x86)/microchip/xc32/v1.21/bin/../lib/gcc/pic32mx/4.5.2/../../../../pic32mx/lib\libmchp_peripheral_32MX460F512L.a(rtcc_set_time_lib.o)
 .debug_str     0x00003abc        0x0 c:/program files (x86)/microchip/xc32/v1.21/bin/../lib/gcc/pic32mx/4.5.2/../../../../pic32mx/lib\libmchp_peripheral_32MX460F512L.a(int_enable_interrupts_lib.o)
 .debug_str     0x00003abc        0x0 c:/program files (x86)/microchip/xc32/v1.21/bin/../lib/gcc/pic32mx/4.5.2/../../../../pic32mx/lib\libmchp_peripheral_32MX460F512L.a(int_tbl_lib.o)
 .debug_str     0x00003abc        0x0 c:/program files (x86)/microchip/xc32/v1.21/bin/../lib/gcc/pic32mx/4.5.2/../../../../pic32mx/lib\libmchp_peripheral_32MX460F512L.a(_rtcc_set_time_and_date_lib.o)
 .debug_str     0x00003abc        0x0 c:/program files (x86)/microchip/xc32/v1.21/bin/../lib/gcc/pic32mx/4.5.2/../../../../pic32mx/lib\libmchp_peripheral_32MX460F512L.a(_rtcc_wait_clock_off_lib.o)
 .debug_str     0x00003abc        0x0 c:/program files (x86)/microchip/xc32/v1.21/bin/../lib/gcc/pic32mx/4.5.2/../../../../pic32mx/lib\libmchp_peripheral_32MX460F512L.a(read_core_timer_lib.o)
 .debug_str     0x00003abc        0x0 c:/program files (x86)/microchip/xc32/v1.21/bin/../lib/gcc/pic32mx/4.5.2/../../../../pic32mx/lib\libpic32.a(default-bootstrap-exception-handler.o)
 .debug_str     0x00003abc        0x0 c:/program files (x86)/microchip/xc32/v1.21/bin/../lib/gcc/pic32mx/4.5.2/../../../../pic32mx/lib\libpic32.a(default-on-reset.o)
 .debug_str     0x00003abc        0x0 c:/program files (x86)/microchip/xc32/v1.21/bin/../lib/gcc/pic32mx/4.5.2/../../../../pic32mx/lib\libpic32.a(default-on-bootstrap.o)
 .debug_str     0x00003abc        0x0 c:/program files (x86)/microchip/xc32/v1.21/bin/../lib/gcc/pic32mx/4.5.2/../../../../pic32mx/lib\libpic32.a(defaultinterrupt.o)
 .debug_str     0x00003abc        0x0 c:/program files (x86)/microchip/xc32/v1.21/bin/../lib/gcc/pic32mx/4.5.2/../../../../pic32mx/lib\libm.a(w_sqrtf.o)
 .debug_str     0x00003abc        0x0 c:/program files (x86)/microchip/xc32/v1.21/bin/../lib/gcc/pic32mx/4.5.2/../../../../pic32mx/lib\libm.a(s_lib_ver.o)
 .debug_str     0x00003abc        0x0 c:/program files (x86)/microchip/xc32/v1.21/bin/../lib/gcc/pic32mx/4.5.2/../../../../pic32mx/lib\libpic32.a(errno.o)
 .debug_str     0x00003abc        0x0 c:/program files (x86)/microchip/xc32/v1.21/bin/../lib/gcc/pic32mx/4.5.2/../../../../pic32mx/lib\libc.a(malloc.o)
 .debug_str     0x00003abc        0x0 c:/program files (x86)/microchip/xc32/v1.21/bin/../lib/gcc/pic32mx/4.5.2/../../../../pic32mx/lib\libpic32.a(sbrk.o)

.debug_loc
 *(.debug_loc)

.debug_macinfo
 *(.debug_macinfo)

.debug_weaknames
 *(.debug_weaknames)

.debug_funcnames
 *(.debug_funcnames)

.debug_typenames
 *(.debug_typenames)

.debug_varnames
 *(.debug_varnames)

.debug_pubtypes
                0x00000000     0x31a8
 *(.debug_pubtypes)
 .debug_pubtypes
                0x00000000      0x1ae build/C32_PIC32MX460F512L/production/graphics/drivers/ILI9341.o
 .debug_pubtypes
                0x000001ae       0xbd build/C32_PIC32MX460F512L/production/graphics/AnalogClock.o
 .debug_pubtypes
                0x0000026b      0x17f build/C32_PIC32MX460F512L/production/graphics/Button.o
 .debug_pubtypes
                0x000003ea       0xbd build/C32_PIC32MX460F512L/production/graphics/Chart.o
 .debug_pubtypes
                0x000004a7      0x16d build/C32_PIC32MX460F512L/production/graphics/CheckBox.o
 .debug_pubtypes
                0x00000614      0x17b build/C32_PIC32MX460F512L/production/graphics/DigitalMeter.o
 .debug_pubtypes
                0x0000078f      0x16c build/C32_PIC32MX460F512L/production/graphics/EditBox.o
 .debug_pubtypes
                0x000008fb      0x173 build/C32_PIC32MX460F512L/production/graphics/GOL.o
 .debug_pubtypes
                0x00000a6e       0x58 build/C32_PIC32MX460F512L/production/graphics/GOLSchemeDefault.o
 .debug_pubtypes
                0x00000ac6       0xbd build/C32_PIC32MX460F512L/production/graphics/Grid.o
 .debug_pubtypes
                0x00000b83      0x16d build/C32_PIC32MX460F512L/production/graphics/GroupBox.o
 .debug_pubtypes
                0x00000cf0      0x179 build/C32_PIC32MX460F512L/production/graphics/ListBox.o
 .debug_pubtypes
                0x00000e69      0x1af build/C32_PIC32MX460F512L/production/graphics/Meter.o
 .debug_pubtypes
                0x00001018       0xbd build/C32_PIC32MX460F512L/production/graphics/Palette.o
 .debug_pubtypes
                0x000010d5      0x17f build/C32_PIC32MX460F512L/production/graphics/Picture.o
 .debug_pubtypes
                0x00001254      0x1d7 build/C32_PIC32MX460F512L/production/graphics/Primitive.o
 .debug_pubtypes
                0x0000142b      0x17a build/C32_PIC32MX460F512L/production/graphics/ProgressBar.o
 .debug_pubtypes
                0x000015a5      0x195 build/C32_PIC32MX460F512L/production/graphics/RadioButton.o
 .debug_pubtypes
                0x0000173a      0x16e build/C32_PIC32MX460F512L/production/graphics/RoundDial.o
 .debug_pubtypes
                0x000018a8      0x199 build/C32_PIC32MX460F512L/production/graphics/Slider.o
 .debug_pubtypes
                0x00001a41      0x16f build/C32_PIC32MX460F512L/production/graphics/StaticText.o
 .debug_pubtypes
                0x00001bb0       0xbd build/C32_PIC32MX460F512L/production/graphics/TextEntry.o
 .debug_pubtypes
                0x00001c6d       0xbd build/C32_PIC32MX460F512L/production/graphics/Transitions.o
 .debug_pubtypes
                0x00001d2a       0xbd build/C32_PIC32MX460F512L/production/graphics/Transitions_weak.o
 .debug_pubtypes
                0x00001de7      0x16b build/C32_PIC32MX460F512L/production/graphics/Window.o
 .debug_pubtypes
                0x00001f52       0xbd build/C32_PIC32MX460F512L/production/configuration_bits.o
 .debug_pubtypes
                0x0000200f       0xbd build/C32_PIC32MX460F512L/production/exceptions.o
 .debug_pubtypes
                0x000020cc       0xbd build/C32_PIC32MX460F512L/production/interrupts.o
 .debug_pubtypes
                0x00002189       0xbd build/C32_PIC32MX460F512L/production/system.o
 .debug_pubtypes
                0x00002246       0xbd build/C32_PIC32MX460F512L/production/user.o
 .debug_pubtypes
                0x00002303       0xe7 build/C32_PIC32MX460F512L/production/TimeDelay.o
 .debug_pubtypes
                0x000023ea       0xbd build/C32_PIC32MX460F512L/production/Beep.o
 .debug_pubtypes
                0x000024a7      0x16b build/C32_PIC32MX460F512L/production/CustomControlDemo.o
 .debug_pubtypes
                0x00002612      0x15b build/C32_PIC32MX460F512L/production/TouchScreen.o
 .debug_pubtypes
                0x0000276d      0x105 build/C32_PIC32MX460F512L/production/drv_spi.o
 .debug_pubtypes
                0x00002872       0xec build/C32_PIC32MX460F512L/production/rtcc.o
 .debug_pubtypes
                0x0000295e      0x11e build/C32_PIC32MX460F512L/production/InternalResourceXC32.o
 .debug_pubtypes
                0x00002a7c       0xbd build/C32_PIC32MX460F512L/production/cpld.o
 .debug_pubtypes
                0x00002b39      0x1a2 build/C32_PIC32MX460F512L/production/TouchScreenResistive.o
 .debug_pubtypes
                0x00002cdb      0x3b2 build/C32_PIC32MX460F512L/production/MainDemo.o
 .debug_pubtypes
                0x0000308d      0x11b build/C32_PIC32MX460F512L/production/SST25VF016.o

.debug_ranges   0x00000000      0x1e0
 *(.debug_ranges)
 .debug_ranges  0x00000000       0x30 build/C32_PIC32MX460F512L/production/MainDemo.o
 .debug_ranges  0x00000030       0x18 c:/program files (x86)/microchip/xc32/v1.21/bin/../lib/gcc/pic32mx/4.5.2/../../../../pic32mx/lib\libmchp_peripheral_32MX460F512L.a(pcache.o)
 .debug_ranges  0x00000048       0x10 c:/program files (x86)/microchip/xc32/v1.21/bin/../lib/gcc/pic32mx/4.5.2/../../../../pic32mx/lib\libmchp_peripheral_32MX460F512L.a(int_disable_interrupts_lib.o)
 .debug_ranges  0x00000058       0x10 c:/program files (x86)/microchip/xc32/v1.21/bin/../lib/gcc/pic32mx/4.5.2/../../../../pic32mx/lib\libmchp_peripheral_32MX460F512L.a(int_restore_interrupts_lib.o)
 .debug_ranges  0x00000068       0x10 c:/program files (x86)/microchip/xc32/v1.21/bin/../lib/gcc/pic32mx/4.5.2/../../../../pic32mx/lib\libmchp_peripheral_32MX460F512L.a(int_enable_mv_int_lib.o)
 .debug_ranges  0x00000078       0x10 c:/program files (x86)/microchip/xc32/v1.21/bin/../lib/gcc/pic32mx/4.5.2/../../../../pic32mx/lib\libmchp_peripheral_32MX460F512L.a(rtcc_init_lib.o)
 .debug_ranges  0x00000088       0x10 c:/program files (x86)/microchip/xc32/v1.21/bin/../lib/gcc/pic32mx/4.5.2/../../../../pic32mx/lib\libmchp_peripheral_32MX460F512L.a(rtcc_set_date_lib.o)
 .debug_ranges  0x00000098       0x10 c:/program files (x86)/microchip/xc32/v1.21/bin/../lib/gcc/pic32mx/4.5.2/../../../../pic32mx/lib\libmchp_peripheral_32MX460F512L.a(rtcc_set_time_lib.o)
 .debug_ranges  0x000000a8       0x10 c:/program files (x86)/microchip/xc32/v1.21/bin/../lib/gcc/pic32mx/4.5.2/../../../../pic32mx/lib\libmchp_peripheral_32MX460F512L.a(int_enable_interrupts_lib.o)
 .debug_ranges  0x000000b8       0x50 c:/program files (x86)/microchip/xc32/v1.21/bin/../lib/gcc/pic32mx/4.5.2/../../../../pic32mx/lib\libmchp_peripheral_32MX460F512L.a(int_tbl_lib.o)
 .debug_ranges  0x00000108       0x10 c:/program files (x86)/microchip/xc32/v1.21/bin/../lib/gcc/pic32mx/4.5.2/../../../../pic32mx/lib\libmchp_peripheral_32MX460F512L.a(_rtcc_set_time_and_date_lib.o)
 .debug_ranges  0x00000118       0x18 c:/program files (x86)/microchip/xc32/v1.21/bin/../lib/gcc/pic32mx/4.5.2/../../../../pic32mx/lib\libmchp_peripheral_32MX460F512L.a(_rtcc_wait_clock_off_lib.o)
 .debug_ranges  0x00000130       0x10 c:/program files (x86)/microchip/xc32/v1.21/bin/../lib/gcc/pic32mx/4.5.2/../../../../pic32mx/lib\libmchp_peripheral_32MX460F512L.a(read_core_timer_lib.o)
 .debug_ranges  0x00000140       0x10 c:/program files (x86)/microchip/xc32/v1.21/bin/../lib/gcc/pic32mx/4.5.2/../../../../pic32mx/lib\libpic32.a(default-bootstrap-exception-handler.o)
 .debug_ranges  0x00000150       0x10 c:/program files (x86)/microchip/xc32/v1.21/bin/../lib/gcc/pic32mx/4.5.2/../../../../pic32mx/lib\libpic32.a(default-on-reset.o)
 .debug_ranges  0x00000160       0x10 c:/program files (x86)/microchip/xc32/v1.21/bin/../lib/gcc/pic32mx/4.5.2/../../../../pic32mx/lib\libpic32.a(default-on-bootstrap.o)
 .debug_ranges  0x00000170       0x10 c:/program files (x86)/microchip/xc32/v1.21/bin/../lib/gcc/pic32mx/4.5.2/../../../../pic32mx/lib\libpic32.a(defaultinterrupt.o)
 .debug_ranges  0x00000180       0x10 c:/program files (x86)/microchip/xc32/v1.21/bin/../lib/gcc/pic32mx/4.5.2/../../../../pic32mx/lib\libm.a(w_sqrtf.o)
 .debug_ranges  0x00000190       0x20 c:/program files (x86)/microchip/xc32/v1.21/bin/../lib/gcc/pic32mx/4.5.2/../../../../pic32mx/lib\libc.a(malloc.o)
 .debug_ranges  0x000001b0       0x30 c:/program files (x86)/microchip/xc32/v1.21/bin/../lib/gcc/pic32mx/4.5.2/../../../../pic32mx/lib\libpic32.a(sbrk.o)

.gnu.attributes
                0x00000000       0x10
 *(.gnu.attributes)
 .gnu.attributes
                0x00000000       0x10 build/C32_PIC32MX460F512L/production/graphics/drivers/ILI9341.o
 .gnu.attributes
                0x00000010       0x10 build/C32_PIC32MX460F512L/production/graphics/AnalogClock.o
 .gnu.attributes
                0x00000020       0x10 build/C32_PIC32MX460F512L/production/graphics/Button.o
 .gnu.attributes
                0x00000030       0x10 build/C32_PIC32MX460F512L/production/graphics/Chart.o
 .gnu.attributes
                0x00000040       0x10 build/C32_PIC32MX460F512L/production/graphics/CheckBox.o
 .gnu.attributes
                0x00000050       0x10 build/C32_PIC32MX460F512L/production/graphics/DigitalMeter.o
 .gnu.attributes
                0x00000060       0x10 build/C32_PIC32MX460F512L/production/graphics/EditBox.o
 .gnu.attributes
                0x00000070       0x10 build/C32_PIC32MX460F512L/production/graphics/GOL.o
 .gnu.attributes
                0x00000080       0x10 build/C32_PIC32MX460F512L/production/graphics/GOLSchemeDefault.o
 .gnu.attributes
                0x00000090       0x10 build/C32_PIC32MX460F512L/production/graphics/Grid.o
 .gnu.attributes
                0x000000a0       0x10 build/C32_PIC32MX460F512L/production/graphics/GroupBox.o
 .gnu.attributes
                0x000000b0       0x10 build/C32_PIC32MX460F512L/production/graphics/ListBox.o
 .gnu.attributes
                0x000000c0       0x10 build/C32_PIC32MX460F512L/production/graphics/Meter.o
 .gnu.attributes
                0x000000d0       0x10 build/C32_PIC32MX460F512L/production/graphics/Palette.o
 .gnu.attributes
                0x000000e0       0x10 build/C32_PIC32MX460F512L/production/graphics/Picture.o
 .gnu.attributes
                0x000000f0       0x10 build/C32_PIC32MX460F512L/production/graphics/Primitive.o
 .gnu.attributes
                0x00000100       0x10 build/C32_PIC32MX460F512L/production/graphics/ProgressBar.o
 .gnu.attributes
                0x00000110       0x10 build/C32_PIC32MX460F512L/production/graphics/RadioButton.o
 .gnu.attributes
                0x00000120       0x10 build/C32_PIC32MX460F512L/production/graphics/RoundDial.o
 .gnu.attributes
                0x00000130       0x10 build/C32_PIC32MX460F512L/production/graphics/Slider.o
 .gnu.attributes
                0x00000140       0x10 build/C32_PIC32MX460F512L/production/graphics/StaticText.o
 .gnu.attributes
                0x00000150       0x10 build/C32_PIC32MX460F512L/production/graphics/Template.o
 .gnu.attributes
                0x00000160       0x10 build/C32_PIC32MX460F512L/production/graphics/TextEntry.o
 .gnu.attributes
                0x00000170       0x10 build/C32_PIC32MX460F512L/production/graphics/Transitions.o
 .gnu.attributes
                0x00000180       0x10 build/C32_PIC32MX460F512L/production/graphics/Transitions_weak.o
 .gnu.attributes
                0x00000190       0x10 build/C32_PIC32MX460F512L/production/graphics/Window.o
 .gnu.attributes
                0x000001a0       0x10 build/C32_PIC32MX460F512L/production/configuration_bits.o
 .gnu.attributes
                0x000001b0       0x10 build/C32_PIC32MX460F512L/production/exceptions.o
 .gnu.attributes
                0x000001c0       0x10 build/C32_PIC32MX460F512L/production/interrupts.o
 .gnu.attributes
                0x000001d0       0x10 build/C32_PIC32MX460F512L/production/system.o
 .gnu.attributes
                0x000001e0       0x10 build/C32_PIC32MX460F512L/production/user.o
 .gnu.attributes
                0x000001f0       0x10 build/C32_PIC32MX460F512L/production/TimeDelay.o
 .gnu.attributes
                0x00000200       0x10 build/C32_PIC32MX460F512L/production/Beep.o
 .gnu.attributes
                0x00000210       0x10 build/C32_PIC32MX460F512L/production/CustomControlDemo.o
 .gnu.attributes
                0x00000220       0x10 build/C32_PIC32MX460F512L/production/TouchScreen.o
 .gnu.attributes
                0x00000230       0x10 build/C32_PIC32MX460F512L/production/drv_spi.o
 .gnu.attributes
                0x00000240       0x10 build/C32_PIC32MX460F512L/production/rtcc.o
 .gnu.attributes
                0x00000250       0x10 build/C32_PIC32MX460F512L/production/InternalResourceXC32.o
 .gnu.attributes
                0x00000260       0x10 build/C32_PIC32MX460F512L/production/cpld.o
 .gnu.attributes
                0x00000270       0x10 build/C32_PIC32MX460F512L/production/TouchScreenResistive.o
 .gnu.attributes
                0x00000280       0x10 build/C32_PIC32MX460F512L/production/MainDemo.o
 .gnu.attributes
                0x00000290       0x10 build/C32_PIC32MX460F512L/production/SST25VF016.o
 .gnu.attributes
                0x000002a0       0x10 c:/program files (x86)/microchip/xc32/v1.21/bin/../lib/gcc/pic32mx/4.5.2/../../../../pic32mx/lib\libmchp_peripheral_32MX460F512L.a(pcache.o)
 .gnu.attributes
                0x000002b0       0x10 c:/program files (x86)/microchip/xc32/v1.21/bin/../lib/gcc/pic32mx/4.5.2/../../../../pic32mx/lib\libmchp_peripheral_32MX460F512L.a(int_disable_interrupts_lib.o)
 .gnu.attributes
                0x000002c0       0x10 c:/program files (x86)/microchip/xc32/v1.21/bin/../lib/gcc/pic32mx/4.5.2/../../../../pic32mx/lib\libmchp_peripheral_32MX460F512L.a(int_restore_interrupts_lib.o)
 .gnu.attributes
                0x000002d0       0x10 c:/program files (x86)/microchip/xc32/v1.21/bin/../lib/gcc/pic32mx/4.5.2/../../../../pic32mx/lib\libmchp_peripheral_32MX460F512L.a(int_enable_mv_int_lib.o)
 .gnu.attributes
                0x000002e0       0x10 c:/program files (x86)/microchip/xc32/v1.21/bin/../lib/gcc/pic32mx/4.5.2/../../../../pic32mx/lib\libmchp_peripheral_32MX460F512L.a(rtcc_init_lib.o)
 .gnu.attributes
                0x000002f0       0x10 c:/program files (x86)/microchip/xc32/v1.21/bin/../lib/gcc/pic32mx/4.5.2/../../../../pic32mx/lib\libmchp_peripheral_32MX460F512L.a(rtcc_set_date_lib.o)
 .gnu.attributes
                0x00000300       0x10 c:/program files (x86)/microchip/xc32/v1.21/bin/../lib/gcc/pic32mx/4.5.2/../../../../pic32mx/lib\libmchp_peripheral_32MX460F512L.a(rtcc_set_time_lib.o)
 .gnu.attributes
                0x00000310       0x10 c:/program files (x86)/microchip/xc32/v1.21/bin/../lib/gcc/pic32mx/4.5.2/../../../../pic32mx/lib\libmchp_peripheral_32MX460F512L.a(int_enable_interrupts_lib.o)
 .gnu.attributes
                0x00000320       0x10 c:/program files (x86)/microchip/xc32/v1.21/bin/../lib/gcc/pic32mx/4.5.2/../../../../pic32mx/lib\libmchp_peripheral_32MX460F512L.a(int_tbl_lib.o)
 .gnu.attributes
                0x00000330       0x10 c:/program files (x86)/microchip/xc32/v1.21/bin/../lib/gcc/pic32mx/4.5.2/../../../../pic32mx/lib\libmchp_peripheral_32MX460F512L.a(_rtcc_set_time_and_date_lib.o)
 .gnu.attributes
                0x00000340       0x10 c:/program files (x86)/microchip/xc32/v1.21/bin/../lib/gcc/pic32mx/4.5.2/../../../../pic32mx/lib\libmchp_peripheral_32MX460F512L.a(_rtcc_wait_clock_off_lib.o)
 .gnu.attributes
                0x00000350       0x10 c:/program files (x86)/microchip/xc32/v1.21/bin/../lib/gcc/pic32mx/4.5.2/../../../../pic32mx/lib\libmchp_peripheral_32MX460F512L.a(read_core_timer_lib.o)
 .gnu.attributes
                0x00000360       0x10 c:/program files (x86)/microchip/xc32/v1.21/bin/../lib/gcc/pic32mx/4.5.2/../../../../pic32mx/lib\libpic32.a(default-bootstrap-exception-handler.o)
 .gnu.attributes
                0x00000370       0x10 c:/program files (x86)/microchip/xc32/v1.21/bin/../lib/gcc/pic32mx/4.5.2/../../../../pic32mx/lib\libpic32.a(default-on-reset.o)
 .gnu.attributes
                0x00000380       0x10 c:/program files (x86)/microchip/xc32/v1.21/bin/../lib/gcc/pic32mx/4.5.2/../../../../pic32mx/lib\libpic32.a(default-on-bootstrap.o)
 .gnu.attributes
                0x00000390       0x10 c:/program files (x86)/microchip/xc32/v1.21/bin/../lib/gcc/pic32mx/4.5.2/../../../../pic32mx/lib\libpic32.a(defaultinterrupt.o)
 .gnu.attributes
                0x000003a0       0x10 c:/program files (x86)/microchip/xc32/v1.21/bin/../lib/gcc/pic32mx/4.5.2/../../../../pic32mx/lib\libm.a(w_sqrtf.o)
 .gnu.attributes
                0x000003b0       0x10 c:/program files (x86)/microchip/xc32/v1.21/bin/../lib/gcc/pic32mx/4.5.2/../../../../pic32mx/lib\libm.a(s_lib_ver.o)
 .gnu.attributes
                0x000003c0       0x10 c:/program files (x86)/microchip/xc32/v1.21/bin/../lib/gcc/pic32mx/4.5.2/../../../../pic32mx/lib\libpic32.a(errno.o)
 .gnu.attributes
                0x000003d0       0x10 c:/program files (x86)/microchip/xc32/v1.21/bin/../lib/gcc/pic32mx/4.5.2/../../../../pic32mx/lib\libc.a(malloc.o)
 .gnu.attributes
                0x000003e0       0x10 c:/program files (x86)/microchip/xc32/v1.21/bin/../lib/gcc/pic32mx/4.5.2/../../../../pic32mx/lib\libpic32.a(sbrk.o)
LOAD c:/program files (x86)/microchip/xc32/v1.21/bin/../lib/gcc/pic32mx/4.5.2\libgcc.a
START GROUP
LOAD c:/program files (x86)/microchip/xc32/v1.21/bin/../lib/gcc/pic32mx/4.5.2/../../../../pic32mx/lib\libpic32.a
LOAD c:/program files (x86)/microchip/xc32/v1.21/bin/../lib/gcc/pic32mx/4.5.2/../../../../pic32mx/lib\libdebug.a
LOAD c:/program files (x86)/microchip/xc32/v1.21/bin/../lib/gcc/pic32mx/4.5.2/../../../../pic32mx/lib\libm.a
LOAD c:/program files (x86)/microchip/xc32/v1.21/bin/../lib/gcc/pic32mx/4.5.2/../../../../pic32mx/lib\libe.a
LOAD c:/program files (x86)/microchip/xc32/v1.21/bin/../lib/gcc/pic32mx/4.5.2/../../../../pic32mx/lib\libdsp.a
LOAD c:/program files (x86)/microchip/xc32/v1.21/bin/../lib/gcc/pic32mx/4.5.2\libgcc.a
LOAD c:/program files (x86)/microchip/xc32/v1.21/bin/../lib/gcc/pic32mx/4.5.2/../../../../pic32mx/lib\libpic32.a
LOAD c:/program files (x86)/microchip/xc32/v1.21/bin/../lib/gcc/pic32mx/4.5.2/../../../../pic32mx/lib\libc.a
LOAD c:/program files (x86)/microchip/xc32/v1.21/bin/../lib/gcc/pic32mx/4.5.2/../../../../pic32mx/lib\libpic32.a
END GROUP
LOAD c:/program files (x86)/microchip/xc32/v1.21/bin/../lib/gcc/pic32mx/4.5.2\libgcc.a
OUTPUT(dist/C32_PIC32MX460F512L/production/Mikroe_Graphics_Test.X.production.elf elf32-tradlittlemips)
LOAD stack
LOAD data_init

.reginfo        0x9d000000       0x18
 .reginfo       0x9d000000       0x18 c:/program files (x86)/microchip/xc32/v1.21/bin/../lib/gcc/pic32mx/4.5.2/../../../../pic32mx/lib/crt0.o

.stack          0xa00014f8      0x400
 .stack         0xa00014f8      0x400 stack

.data           0xa00009a4      0x2c4
 .data          0xa00009a4      0x280 build/C32_PIC32MX460F512L/production/MainDemo.o
                0xa00009a4                cStrings
                0xa0000ad8                eStrings
 .data          0xa0000c24       0x24 c:/program files (x86)/microchip/xc32/v1.21/bin/../lib/gcc/pic32mx/4.5.2/../../../../pic32mx/lib\libm.a(sincof32.o)
                0xa0000c24                _sincof
                0xa0000c34                _coscof
 .data          0xa0000c48       0x20 build/C32_PIC32MX460F512L/production/rtcc.o
                0xa0000c48                _time_str
                0xa0000c58                _date_str

.bss            0xa0000c68       0x4c
 .bss           0xa0000c68       0x1c c:/program files (x86)/microchip/xc32/v1.21/bin/../lib/gcc/pic32mx/4.5.2/../../../../pic32mx/lib\libpic32.a(sbrk.o)
 .bss           0xa0000c84       0x18 build/C32_PIC32MX460F512L/production/graphics/DigitalMeter.o
 .bss           0xa0000c9c       0x18 build/C32_PIC32MX460F512L/production/graphics/Primitive.o

.data           0xa0000cb4       0x18
 .data          0xa0000cb4       0x18 build/C32_PIC32MX460F512L/production/TouchScreen.o

.bss            0xa0000ccc       0x30
 .bss           0xa0000ccc       0x10 build/C32_PIC32MX460F512L/production/drv_spi.o
 .bss           0xa0000cdc       0x10 build/C32_PIC32MX460F512L/production/SST25VF016.o
 .bss           0xa0000cec       0x10 c:/program files (x86)/microchip/xc32/v1.21/bin/../lib/gcc/pic32mx/4.5.2/../../../../pic32mx/lib\libc.a(malloc.o)
                0xa0000cec                __allocs

.data           0xa0000cfc        0xc
 .data          0xa0000cfc        0xc build/C32_PIC32MX460F512L/production/graphics/RoundDial.o
                0xa0000cfc                _cosine

.data.math_errhandling_flag
                0xa0000d08        0x4
 .data.math_errhandling_flag
                0xa0000d08        0x4 c:/program files (x86)/microchip/xc32/v1.21/bin/../lib/gcc/pic32mx/4.5.2/../../../../pic32mx/lib\libm.a(s_lib_ver.o)
                0xa0000d08                math_errhandling

.bss%z1         0x00000000        0x0
 .bss           0x00000000        0x0 c:/program files (x86)/microchip/xc32/v1.21/bin/../lib/gcc/pic32mx/4.5.2/../../../../pic32mx/lib\libpic32.a(memset.o)

.data%z2        0x00000000        0x0
 .data          0x00000000        0x0 c:/program files (x86)/microchip/xc32/v1.21/bin/../lib/gcc/pic32mx/4.5.2/../../../../pic32mx/lib\libpic32.a(memset.o)

.data%z3        0x00000000        0x0
 .data          0x00000000        0x0 c:/program files (x86)/microchip/xc32/v1.21/bin/../lib/gcc/pic32mx/4.5.2/../../../../pic32mx/lib\libpic32.a(sbrk.o)

.data%z4        0x00000000        0x0
 .data          0x00000000        0x0 c:/program files (x86)/microchip/xc32/v1.21/bin/../lib/gcc/pic32mx/4.5.2/../../../../pic32mx/lib\libc.a(malloc.o)

.bss%z5         0x00000000        0x0
 .bss           0x00000000        0x0 c:/program files (x86)/microchip/xc32/v1.21/bin/../lib/gcc/pic32mx/4.5.2/../../../../pic32mx/lib\libpic32.a(errno.o)

.data%z6        0x00000000        0x0
 .data          0x00000000        0x0 c:/program files (x86)/microchip/xc32/v1.21/bin/../lib/gcc/pic32mx/4.5.2/../../../../pic32mx/lib\libpic32.a(errno.o)

.bss%z7         0x00000000        0x0
 .bss           0x00000000        0x0 c:/program files (x86)/microchip/xc32/v1.21/bin/../lib/gcc/pic32mx/4.5.2/../../../../pic32mx/lib\libm.a(fpsqrt32.o)

.data%z8        0x00000000        0x0
 .data          0x00000000        0x0 c:/program files (x86)/microchip/xc32/v1.21/bin/../lib/gcc/pic32mx/4.5.2/../../../../pic32mx/lib\libm.a(fpsqrt32.o)

.bss%z9         0x00000000        0x0
 .bss           0x00000000        0x0 c:/program files (x86)/microchip/xc32/v1.21/bin/../lib/gcc/pic32mx/4.5.2/../../../../pic32mx/lib\libm.a(s_lib_ver.o)

.data%z10       0x00000000        0x0
 .data          0x00000000        0x0 c:/program files (x86)/microchip/xc32/v1.21/bin/../lib/gcc/pic32mx/4.5.2/../../../../pic32mx/lib\libm.a(s_lib_ver.o)

.bss%z11        0x00000000        0x0
 .bss           0x00000000        0x0 c:/program files (x86)/microchip/xc32/v1.21/bin/../lib/gcc/pic32mx/4.5.2/../../../../pic32mx/lib\libm.a(sincof32.o)

.bss%z12        0x00000000        0x0
 .bss           0x00000000        0x0 c:/program files (x86)/microchip/xc32/v1.21/bin/../lib/gcc/pic32mx/4.5.2/../../../../pic32mx/lib\libm.a(fpreduct32.o)

.data%z13       0x00000000        0x0
 .data          0x00000000        0x0 c:/program files (x86)/microchip/xc32/v1.21/bin/../lib/gcc/pic32mx/4.5.2/../../../../pic32mx/lib\libm.a(fpreduct32.o)

.bss%z14        0x00000000        0x0
 .bss           0x00000000        0x0 c:/program files (x86)/microchip/xc32/v1.21/bin/../lib/gcc/pic32mx/4.5.2/../../../../pic32mx/lib\libm.a(fpsin32.o)

.data%z15       0x00000000        0x0
 .data          0x00000000        0x0 c:/program files (x86)/microchip/xc32/v1.21/bin/../lib/gcc/pic32mx/4.5.2/../../../../pic32mx/lib\libm.a(fpsin32.o)

.bss%z16        0x00000000        0x0
 .bss           0x00000000        0x0 c:/program files (x86)/microchip/xc32/v1.21/bin/../lib/gcc/pic32mx/4.5.2/../../../../pic32mx/lib\libm.a(fpcos32.o)

.data%z17       0x00000000        0x0
 .data          0x00000000        0x0 c:/program files (x86)/microchip/xc32/v1.21/bin/../lib/gcc/pic32mx/4.5.2/../../../../pic32mx/lib\libm.a(fpcos32.o)

.bss%z18        0x00000000        0x0
 .bss           0x00000000        0x0 c:/program files (x86)/microchip/xc32/v1.21/bin/../lib/gcc/pic32mx/4.5.2/../../../../pic32mx/lib\libm.a(fp32.o)

.data%z19       0x00000000        0x0
 .data          0x00000000        0x0 c:/program files (x86)/microchip/xc32/v1.21/bin/../lib/gcc/pic32mx/4.5.2/../../../../pic32mx/lib\libm.a(fp32.o)

.bss%z20        0x00000000        0x0
 .bss           0x00000000        0x0 c:/program files (x86)/microchip/xc32/v1.21/bin/../lib/gcc/pic32mx/4.5.2/../../../../pic32mx/lib\libm.a(w_sqrtf.o)

.data%z21       0x00000000        0x0
 .data          0x00000000        0x0 c:/program files (x86)/microchip/xc32/v1.21/bin/../lib/gcc/pic32mx/4.5.2/../../../../pic32mx/lib\libm.a(w_sqrtf.o)

.bss%z22        0x00000000        0x0
 .bss           0x00000000        0x0 c:/program files (x86)/microchip/xc32/v1.21/bin/../lib/gcc/pic32mx/4.5.2/../../../../pic32mx/lib\libpic32.a(defaultinterrupt.o)

.data%z23       0x00000000        0x0
 .data          0x00000000        0x0 c:/program files (x86)/microchip/xc32/v1.21/bin/../lib/gcc/pic32mx/4.5.2/../../../../pic32mx/lib\libpic32.a(defaultinterrupt.o)

.bss%z24        0x00000000        0x0
 .bss           0x00000000        0x0 c:/program files (x86)/microchip/xc32/v1.21/bin/../lib/gcc/pic32mx/4.5.2/../../../../pic32mx/lib\libpic32.a(vector63.o)

.data%z25       0x00000000        0x0
 .data          0x00000000        0x0 c:/program files (x86)/microchip/xc32/v1.21/bin/../lib/gcc/pic32mx/4.5.2/../../../../pic32mx/lib\libpic32.a(vector63.o)

.bss%z26        0x00000000        0x0
 .bss           0x00000000        0x0 c:/program files (x86)/microchip/xc32/v1.21/bin/../lib/gcc/pic32mx/4.5.2/../../../../pic32mx/lib\libpic32.a(vector62.o)

.data%z27       0x00000000        0x0
 .data          0x00000000        0x0 c:/program files (x86)/microchip/xc32/v1.21/bin/../lib/gcc/pic32mx/4.5.2/../../../../pic32mx/lib\libpic32.a(vector62.o)

.bss%z28        0x00000000        0x0
 .bss           0x00000000        0x0 c:/program files (x86)/microchip/xc32/v1.21/bin/../lib/gcc/pic32mx/4.5.2/../../../../pic32mx/lib\libpic32.a(vector61.o)

.data%z29       0x00000000        0x0
 .data          0x00000000        0x0 c:/program files (x86)/microchip/xc32/v1.21/bin/../lib/gcc/pic32mx/4.5.2/../../../../pic32mx/lib\libpic32.a(vector61.o)

.bss%z30        0x00000000        0x0
 .bss           0x00000000        0x0 c:/program files (x86)/microchip/xc32/v1.21/bin/../lib/gcc/pic32mx/4.5.2/../../../../pic32mx/lib\libpic32.a(vector60.o)

.data%z31       0x00000000        0x0
 .data          0x00000000        0x0 c:/program files (x86)/microchip/xc32/v1.21/bin/../lib/gcc/pic32mx/4.5.2/../../../../pic32mx/lib\libpic32.a(vector60.o)

.bss%z32        0x00000000        0x0
 .bss           0x00000000        0x0 c:/program files (x86)/microchip/xc32/v1.21/bin/../lib/gcc/pic32mx/4.5.2/../../../../pic32mx/lib\libpic32.a(vector59.o)

.data%z33       0x00000000        0x0
 .data          0x00000000        0x0 c:/program files (x86)/microchip/xc32/v1.21/bin/../lib/gcc/pic32mx/4.5.2/../../../../pic32mx/lib\libpic32.a(vector59.o)

.bss%z34        0x00000000        0x0
 .bss           0x00000000        0x0 c:/program files (x86)/microchip/xc32/v1.21/bin/../lib/gcc/pic32mx/4.5.2/../../../../pic32mx/lib\libpic32.a(vector58.o)

.data%z35       0x00000000        0x0
 .data          0x00000000        0x0 c:/program files (x86)/microchip/xc32/v1.21/bin/../lib/gcc/pic32mx/4.5.2/../../../../pic32mx/lib\libpic32.a(vector58.o)

.bss%z36        0x00000000        0x0
 .bss           0x00000000        0x0 c:/program files (x86)/microchip/xc32/v1.21/bin/../lib/gcc/pic32mx/4.5.2/../../../../pic32mx/lib\libpic32.a(vector57.o)

.data%z37       0x00000000        0x0
 .data          0x00000000        0x0 c:/program files (x86)/microchip/xc32/v1.21/bin/../lib/gcc/pic32mx/4.5.2/../../../../pic32mx/lib\libpic32.a(vector57.o)

.bss%z38        0x00000000        0x0
 .bss           0x00000000        0x0 c:/program files (x86)/microchip/xc32/v1.21/bin/../lib/gcc/pic32mx/4.5.2/../../../../pic32mx/lib\libpic32.a(vector56.o)

.data%z39       0x00000000        0x0
 .data          0x00000000        0x0 c:/program files (x86)/microchip/xc32/v1.21/bin/../lib/gcc/pic32mx/4.5.2/../../../../pic32mx/lib\libpic32.a(vector56.o)

.bss%z40        0x00000000        0x0
 .bss           0x00000000        0x0 c:/program files (x86)/microchip/xc32/v1.21/bin/../lib/gcc/pic32mx/4.5.2/../../../../pic32mx/lib\libpic32.a(vector55.o)

.data%z41       0x00000000        0x0
 .data          0x00000000        0x0 c:/program files (x86)/microchip/xc32/v1.21/bin/../lib/gcc/pic32mx/4.5.2/../../../../pic32mx/lib\libpic32.a(vector55.o)

.bss%z42        0x00000000        0x0
 .bss           0x00000000        0x0 c:/program files (x86)/microchip/xc32/v1.21/bin/../lib/gcc/pic32mx/4.5.2/../../../../pic32mx/lib\libpic32.a(vector54.o)

.data%z43       0x00000000        0x0
 .data          0x00000000        0x0 c:/program files (x86)/microchip/xc32/v1.21/bin/../lib/gcc/pic32mx/4.5.2/../../../../pic32mx/lib\libpic32.a(vector54.o)

.bss%z44        0x00000000        0x0
 .bss           0x00000000        0x0 c:/program files (x86)/microchip/xc32/v1.21/bin/../lib/gcc/pic32mx/4.5.2/../../../../pic32mx/lib\libpic32.a(vector53.o)

.data%z45       0x00000000        0x0
 .data          0x00000000        0x0 c:/program files (x86)/microchip/xc32/v1.21/bin/../lib/gcc/pic32mx/4.5.2/../../../../pic32mx/lib\libpic32.a(vector53.o)

.bss%z46        0x00000000        0x0
 .bss           0x00000000        0x0 c:/program files (x86)/microchip/xc32/v1.21/bin/../lib/gcc/pic32mx/4.5.2/../../../../pic32mx/lib\libpic32.a(vector52.o)

.data%z47       0x00000000        0x0
 .data          0x00000000        0x0 c:/program files (x86)/microchip/xc32/v1.21/bin/../lib/gcc/pic32mx/4.5.2/../../../../pic32mx/lib\libpic32.a(vector52.o)

.bss%z48        0x00000000        0x0
 .bss           0x00000000        0x0 c:/program files (x86)/microchip/xc32/v1.21/bin/../lib/gcc/pic32mx/4.5.2/../../../../pic32mx/lib\libpic32.a(vector51.o)

.data%z49       0x00000000        0x0
 .data          0x00000000        0x0 c:/program files (x86)/microchip/xc32/v1.21/bin/../lib/gcc/pic32mx/4.5.2/../../../../pic32mx/lib\libpic32.a(vector51.o)

.bss%z50        0x00000000        0x0
 .bss           0x00000000        0x0 c:/program files (x86)/microchip/xc32/v1.21/bin/../lib/gcc/pic32mx/4.5.2/../../../../pic32mx/lib\libpic32.a(vector50.o)

.data%z51       0x00000000        0x0
 .data          0x00000000        0x0 c:/program files (x86)/microchip/xc32/v1.21/bin/../lib/gcc/pic32mx/4.5.2/../../../../pic32mx/lib\libpic32.a(vector50.o)

.bss%z52        0x00000000        0x0
 .bss           0x00000000        0x0 c:/program files (x86)/microchip/xc32/v1.21/bin/../lib/gcc/pic32mx/4.5.2/../../../../pic32mx/lib\libpic32.a(vector49.o)

.data%z53       0x00000000        0x0
 .data          0x00000000        0x0 c:/program files (x86)/microchip/xc32/v1.21/bin/../lib/gcc/pic32mx/4.5.2/../../../../pic32mx/lib\libpic32.a(vector49.o)

.bss%z54        0x00000000        0x0
 .bss           0x00000000        0x0 c:/program files (x86)/microchip/xc32/v1.21/bin/../lib/gcc/pic32mx/4.5.2/../../../../pic32mx/lib\libpic32.a(vector48.o)

.data%z55       0x00000000        0x0
 .data          0x00000000        0x0 c:/program files (x86)/microchip/xc32/v1.21/bin/../lib/gcc/pic32mx/4.5.2/../../../../pic32mx/lib\libpic32.a(vector48.o)

.bss%z56        0x00000000        0x0
 .bss           0x00000000        0x0 c:/program files (x86)/microchip/xc32/v1.21/bin/../lib/gcc/pic32mx/4.5.2/../../../../pic32mx/lib\libpic32.a(vector47.o)

.data%z57       0x00000000        0x0
 .data          0x00000000        0x0 c:/program files (x86)/microchip/xc32/v1.21/bin/../lib/gcc/pic32mx/4.5.2/../../../../pic32mx/lib\libpic32.a(vector47.o)

.bss%z58        0x00000000        0x0
 .bss           0x00000000        0x0 c:/program files (x86)/microchip/xc32/v1.21/bin/../lib/gcc/pic32mx/4.5.2/../../../../pic32mx/lib\libpic32.a(vector46.o)

.data%z59       0x00000000        0x0
 .data          0x00000000        0x0 c:/program files (x86)/microchip/xc32/v1.21/bin/../lib/gcc/pic32mx/4.5.2/../../../../pic32mx/lib\libpic32.a(vector46.o)

.bss%z60        0x00000000        0x0
 .bss           0x00000000        0x0 c:/program files (x86)/microchip/xc32/v1.21/bin/../lib/gcc/pic32mx/4.5.2/../../../../pic32mx/lib\libpic32.a(vector45.o)

.data%z61       0x00000000        0x0
 .data          0x00000000        0x0 c:/program files (x86)/microchip/xc32/v1.21/bin/../lib/gcc/pic32mx/4.5.2/../../../../pic32mx/lib\libpic32.a(vector45.o)

.bss%z62        0x00000000        0x0
 .bss           0x00000000        0x0 c:/program files (x86)/microchip/xc32/v1.21/bin/../lib/gcc/pic32mx/4.5.2/../../../../pic32mx/lib\libpic32.a(vector44.o)

.data%z63       0x00000000        0x0
 .data          0x00000000        0x0 c:/program files (x86)/microchip/xc32/v1.21/bin/../lib/gcc/pic32mx/4.5.2/../../../../pic32mx/lib\libpic32.a(vector44.o)

.bss%z64        0x00000000        0x0
 .bss           0x00000000        0x0 c:/program files (x86)/microchip/xc32/v1.21/bin/../lib/gcc/pic32mx/4.5.2/../../../../pic32mx/lib\libpic32.a(vector43.o)

.data%z65       0x00000000        0x0
 .data          0x00000000        0x0 c:/program files (x86)/microchip/xc32/v1.21/bin/../lib/gcc/pic32mx/4.5.2/../../../../pic32mx/lib\libpic32.a(vector43.o)

.bss%z66        0x00000000        0x0
 .bss           0x00000000        0x0 c:/program files (x86)/microchip/xc32/v1.21/bin/../lib/gcc/pic32mx/4.5.2/../../../../pic32mx/lib\libpic32.a(vector42.o)

.data%z67       0x00000000        0x0
 .data          0x00000000        0x0 c:/program files (x86)/microchip/xc32/v1.21/bin/../lib/gcc/pic32mx/4.5.2/../../../../pic32mx/lib\libpic32.a(vector42.o)

.bss%z68        0x00000000        0x0
 .bss           0x00000000        0x0 c:/program files (x86)/microchip/xc32/v1.21/bin/../lib/gcc/pic32mx/4.5.2/../../../../pic32mx/lib\libpic32.a(vector41.o)

.data%z69       0x00000000        0x0
 .data          0x00000000        0x0 c:/program files (x86)/microchip/xc32/v1.21/bin/../lib/gcc/pic32mx/4.5.2/../../../../pic32mx/lib\libpic32.a(vector41.o)

.bss%z70        0x00000000        0x0
 .bss           0x00000000        0x0 c:/program files (x86)/microchip/xc32/v1.21/bin/../lib/gcc/pic32mx/4.5.2/../../../../pic32mx/lib\libpic32.a(vector40.o)

.data%z71       0x00000000        0x0
 .data          0x00000000        0x0 c:/program files (x86)/microchip/xc32/v1.21/bin/../lib/gcc/pic32mx/4.5.2/../../../../pic32mx/lib\libpic32.a(vector40.o)

.bss%z72        0x00000000        0x0
 .bss           0x00000000        0x0 c:/program files (x86)/microchip/xc32/v1.21/bin/../lib/gcc/pic32mx/4.5.2/../../../../pic32mx/lib\libpic32.a(vector39.o)

.data%z73       0x00000000        0x0
 .data          0x00000000        0x0 c:/program files (x86)/microchip/xc32/v1.21/bin/../lib/gcc/pic32mx/4.5.2/../../../../pic32mx/lib\libpic32.a(vector39.o)

.bss%z74        0x00000000        0x0
 .bss           0x00000000        0x0 c:/program files (x86)/microchip/xc32/v1.21/bin/../lib/gcc/pic32mx/4.5.2/../../../../pic32mx/lib\libpic32.a(vector38.o)

.data%z75       0x00000000        0x0
 .data          0x00000000        0x0 c:/program files (x86)/microchip/xc32/v1.21/bin/../lib/gcc/pic32mx/4.5.2/../../../../pic32mx/lib\libpic32.a(vector38.o)

.bss%z76        0x00000000        0x0
 .bss           0x00000000        0x0 c:/program files (x86)/microchip/xc32/v1.21/bin/../lib/gcc/pic32mx/4.5.2/../../../../pic32mx/lib\libpic32.a(vector37.o)

.data%z77       0x00000000        0x0
 .data          0x00000000        0x0 c:/program files (x86)/microchip/xc32/v1.21/bin/../lib/gcc/pic32mx/4.5.2/../../../../pic32mx/lib\libpic32.a(vector37.o)

.bss%z78        0x00000000        0x0
 .bss           0x00000000        0x0 c:/program files (x86)/microchip/xc32/v1.21/bin/../lib/gcc/pic32mx/4.5.2/../../../../pic32mx/lib\libpic32.a(vector36.o)

.data%z79       0x00000000        0x0
 .data          0x00000000        0x0 c:/program files (x86)/microchip/xc32/v1.21/bin/../lib/gcc/pic32mx/4.5.2/../../../../pic32mx/lib\libpic32.a(vector36.o)

.bss%z80        0x00000000        0x0
 .bss           0x00000000        0x0 c:/program files (x86)/microchip/xc32/v1.21/bin/../lib/gcc/pic32mx/4.5.2/../../../../pic32mx/lib\libpic32.a(vector35.o)

.data%z81       0x00000000        0x0
 .data          0x00000000        0x0 c:/program files (x86)/microchip/xc32/v1.21/bin/../lib/gcc/pic32mx/4.5.2/../../../../pic32mx/lib\libpic32.a(vector35.o)

.bss%z82        0x00000000        0x0
 .bss           0x00000000        0x0 c:/program files (x86)/microchip/xc32/v1.21/bin/../lib/gcc/pic32mx/4.5.2/../../../../pic32mx/lib\libpic32.a(vector34.o)

.data%z83       0x00000000        0x0
 .data          0x00000000        0x0 c:/program files (x86)/microchip/xc32/v1.21/bin/../lib/gcc/pic32mx/4.5.2/../../../../pic32mx/lib\libpic32.a(vector34.o)

.bss%z84        0x00000000        0x0
 .bss           0x00000000        0x0 c:/program files (x86)/microchip/xc32/v1.21/bin/../lib/gcc/pic32mx/4.5.2/../../../../pic32mx/lib\libpic32.a(vector33.o)

.data%z85       0x00000000        0x0
 .data          0x00000000        0x0 c:/program files (x86)/microchip/xc32/v1.21/bin/../lib/gcc/pic32mx/4.5.2/../../../../pic32mx/lib\libpic32.a(vector33.o)

.bss%z86        0x00000000        0x0
 .bss           0x00000000        0x0 c:/program files (x86)/microchip/xc32/v1.21/bin/../lib/gcc/pic32mx/4.5.2/../../../../pic32mx/lib\libpic32.a(vector32.o)

.data%z87       0x00000000        0x0
 .data          0x00000000        0x0 c:/program files (x86)/microchip/xc32/v1.21/bin/../lib/gcc/pic32mx/4.5.2/../../../../pic32mx/lib\libpic32.a(vector32.o)

.bss%z88        0x00000000        0x0
 .bss           0x00000000        0x0 c:/program files (x86)/microchip/xc32/v1.21/bin/../lib/gcc/pic32mx/4.5.2/../../../../pic32mx/lib\libpic32.a(vector31.o)

.data%z89       0x00000000        0x0
 .data          0x00000000        0x0 c:/program files (x86)/microchip/xc32/v1.21/bin/../lib/gcc/pic32mx/4.5.2/../../../../pic32mx/lib\libpic32.a(vector31.o)

.bss%z90        0x00000000        0x0
 .bss           0x00000000        0x0 c:/program files (x86)/microchip/xc32/v1.21/bin/../lib/gcc/pic32mx/4.5.2/../../../../pic32mx/lib\libpic32.a(vector30.o)

.data%z91       0x00000000        0x0
 .data          0x00000000        0x0 c:/program files (x86)/microchip/xc32/v1.21/bin/../lib/gcc/pic32mx/4.5.2/../../../../pic32mx/lib\libpic32.a(vector30.o)

.bss%z92        0x00000000        0x0
 .bss           0x00000000        0x0 c:/program files (x86)/microchip/xc32/v1.21/bin/../lib/gcc/pic32mx/4.5.2/../../../../pic32mx/lib\libpic32.a(vector29.o)

.data%z93       0x00000000        0x0
 .data          0x00000000        0x0 c:/program files (x86)/microchip/xc32/v1.21/bin/../lib/gcc/pic32mx/4.5.2/../../../../pic32mx/lib\libpic32.a(vector29.o)

.bss%z94        0x00000000        0x0
 .bss           0x00000000        0x0 c:/program files (x86)/microchip/xc32/v1.21/bin/../lib/gcc/pic32mx/4.5.2/../../../../pic32mx/lib\libpic32.a(vector28.o)

.data%z95       0x00000000        0x0
 .data          0x00000000        0x0 c:/program files (x86)/microchip/xc32/v1.21/bin/../lib/gcc/pic32mx/4.5.2/../../../../pic32mx/lib\libpic32.a(vector28.o)

.bss%z96        0x00000000        0x0
 .bss           0x00000000        0x0 c:/program files (x86)/microchip/xc32/v1.21/bin/../lib/gcc/pic32mx/4.5.2/../../../../pic32mx/lib\libpic32.a(vector27.o)

.data%z97       0x00000000        0x0
 .data          0x00000000        0x0 c:/program files (x86)/microchip/xc32/v1.21/bin/../lib/gcc/pic32mx/4.5.2/../../../../pic32mx/lib\libpic32.a(vector27.o)

.bss%z98        0x00000000        0x0
 .bss           0x00000000        0x0 c:/program files (x86)/microchip/xc32/v1.21/bin/../lib/gcc/pic32mx/4.5.2/../../../../pic32mx/lib\libpic32.a(vector26.o)

.data%z99       0x00000000        0x0
 .data          0x00000000        0x0 c:/program files (x86)/microchip/xc32/v1.21/bin/../lib/gcc/pic32mx/4.5.2/../../../../pic32mx/lib\libpic32.a(vector26.o)

.bss%z100       0x00000000        0x0
 .bss           0x00000000        0x0 c:/program files (x86)/microchip/xc32/v1.21/bin/../lib/gcc/pic32mx/4.5.2/../../../../pic32mx/lib\libpic32.a(vector25.o)

.data%z101      0x00000000        0x0
 .data          0x00000000        0x0 c:/program files (x86)/microchip/xc32/v1.21/bin/../lib/gcc/pic32mx/4.5.2/../../../../pic32mx/lib\libpic32.a(vector25.o)

.bss%z102       0x00000000        0x0
 .bss           0x00000000        0x0 c:/program files (x86)/microchip/xc32/v1.21/bin/../lib/gcc/pic32mx/4.5.2/../../../../pic32mx/lib\libpic32.a(vector24.o)

.data%z103      0x00000000        0x0
 .data          0x00000000        0x0 c:/program files (x86)/microchip/xc32/v1.21/bin/../lib/gcc/pic32mx/4.5.2/../../../../pic32mx/lib\libpic32.a(vector24.o)

.bss%z104       0x00000000        0x0
 .bss           0x00000000        0x0 c:/program files (x86)/microchip/xc32/v1.21/bin/../lib/gcc/pic32mx/4.5.2/../../../../pic32mx/lib\libpic32.a(vector23.o)

.data%z105      0x00000000        0x0
 .data          0x00000000        0x0 c:/program files (x86)/microchip/xc32/v1.21/bin/../lib/gcc/pic32mx/4.5.2/../../../../pic32mx/lib\libpic32.a(vector23.o)

.bss%z106       0x00000000        0x0
 .bss           0x00000000        0x0 c:/program files (x86)/microchip/xc32/v1.21/bin/../lib/gcc/pic32mx/4.5.2/../../../../pic32mx/lib\libpic32.a(vector22.o)

.data%z107      0x00000000        0x0
 .data          0x00000000        0x0 c:/program files (x86)/microchip/xc32/v1.21/bin/../lib/gcc/pic32mx/4.5.2/../../../../pic32mx/lib\libpic32.a(vector22.o)

.bss%z108       0x00000000        0x0
 .bss           0x00000000        0x0 c:/program files (x86)/microchip/xc32/v1.21/bin/../lib/gcc/pic32mx/4.5.2/../../../../pic32mx/lib\libpic32.a(vector21.o)

.data%z109      0x00000000        0x0
 .data          0x00000000        0x0 c:/program files (x86)/microchip/xc32/v1.21/bin/../lib/gcc/pic32mx/4.5.2/../../../../pic32mx/lib\libpic32.a(vector21.o)

.bss%z110       0x00000000        0x0
 .bss           0x00000000        0x0 c:/program files (x86)/microchip/xc32/v1.21/bin/../lib/gcc/pic32mx/4.5.2/../../../../pic32mx/lib\libpic32.a(vector20.o)

.data%z111      0x00000000        0x0
 .data          0x00000000        0x0 c:/program files (x86)/microchip/xc32/v1.21/bin/../lib/gcc/pic32mx/4.5.2/../../../../pic32mx/lib\libpic32.a(vector20.o)

.bss%z112       0x00000000        0x0
 .bss           0x00000000        0x0 c:/program files (x86)/microchip/xc32/v1.21/bin/../lib/gcc/pic32mx/4.5.2/../../../../pic32mx/lib\libpic32.a(vector19.o)

.data%z113      0x00000000        0x0
 .data          0x00000000        0x0 c:/program files (x86)/microchip/xc32/v1.21/bin/../lib/gcc/pic32mx/4.5.2/../../../../pic32mx/lib\libpic32.a(vector19.o)

.bss%z114       0x00000000        0x0
 .bss           0x00000000        0x0 c:/program files (x86)/microchip/xc32/v1.21/bin/../lib/gcc/pic32mx/4.5.2/../../../../pic32mx/lib\libpic32.a(vector18.o)

.data%z115      0x00000000        0x0
 .data          0x00000000        0x0 c:/program files (x86)/microchip/xc32/v1.21/bin/../lib/gcc/pic32mx/4.5.2/../../../../pic32mx/lib\libpic32.a(vector18.o)

.bss%z116       0x00000000        0x0
 .bss           0x00000000        0x0 c:/program files (x86)/microchip/xc32/v1.21/bin/../lib/gcc/pic32mx/4.5.2/../../../../pic32mx/lib\libpic32.a(vector17.o)

.data%z117      0x00000000        0x0
 .data          0x00000000        0x0 c:/program files (x86)/microchip/xc32/v1.21/bin/../lib/gcc/pic32mx/4.5.2/../../../../pic32mx/lib\libpic32.a(vector17.o)

.bss%z118       0x00000000        0x0
 .bss           0x00000000        0x0 c:/program files (x86)/microchip/xc32/v1.21/bin/../lib/gcc/pic32mx/4.5.2/../../../../pic32mx/lib\libpic32.a(vector15.o)

.data%z119      0x00000000        0x0
 .data          0x00000000        0x0 c:/program files (x86)/microchip/xc32/v1.21/bin/../lib/gcc/pic32mx/4.5.2/../../../../pic32mx/lib\libpic32.a(vector15.o)

.bss%z120       0x00000000        0x0
 .bss           0x00000000        0x0 c:/program files (x86)/microchip/xc32/v1.21/bin/../lib/gcc/pic32mx/4.5.2/../../../../pic32mx/lib\libpic32.a(vector14.o)

.data%z121      0x00000000        0x0
 .data          0x00000000        0x0 c:/program files (x86)/microchip/xc32/v1.21/bin/../lib/gcc/pic32mx/4.5.2/../../../../pic32mx/lib\libpic32.a(vector14.o)

.bss%z122       0x00000000        0x0
 .bss           0x00000000        0x0 c:/program files (x86)/microchip/xc32/v1.21/bin/../lib/gcc/pic32mx/4.5.2/../../../../pic32mx/lib\libpic32.a(vector13.o)

.data%z123      0x00000000        0x0
 .data          0x00000000        0x0 c:/program files (x86)/microchip/xc32/v1.21/bin/../lib/gcc/pic32mx/4.5.2/../../../../pic32mx/lib\libpic32.a(vector13.o)

.bss%z124       0x00000000        0x0
 .bss           0x00000000        0x0 c:/program files (x86)/microchip/xc32/v1.21/bin/../lib/gcc/pic32mx/4.5.2/../../../../pic32mx/lib\libpic32.a(vector12.o)

.data%z125      0x00000000        0x0
 .data          0x00000000        0x0 c:/program files (x86)/microchip/xc32/v1.21/bin/../lib/gcc/pic32mx/4.5.2/../../../../pic32mx/lib\libpic32.a(vector12.o)

.bss%z126       0x00000000        0x0
 .bss           0x00000000        0x0 c:/program files (x86)/microchip/xc32/v1.21/bin/../lib/gcc/pic32mx/4.5.2/../../../../pic32mx/lib\libpic32.a(vector11.o)

.data%z127      0x00000000        0x0
 .data          0x00000000        0x0 c:/program files (x86)/microchip/xc32/v1.21/bin/../lib/gcc/pic32mx/4.5.2/../../../../pic32mx/lib\libpic32.a(vector11.o)

.bss%z128       0x00000000        0x0
 .bss           0x00000000        0x0 c:/program files (x86)/microchip/xc32/v1.21/bin/../lib/gcc/pic32mx/4.5.2/../../../../pic32mx/lib\libpic32.a(vector10.o)

.data%z129      0x00000000        0x0
 .data          0x00000000        0x0 c:/program files (x86)/microchip/xc32/v1.21/bin/../lib/gcc/pic32mx/4.5.2/../../../../pic32mx/lib\libpic32.a(vector10.o)

.bss%z130       0x00000000        0x0
 .bss           0x00000000        0x0 c:/program files (x86)/microchip/xc32/v1.21/bin/../lib/gcc/pic32mx/4.5.2/../../../../pic32mx/lib\libpic32.a(vector9.o)

.data%z131      0x00000000        0x0
 .data          0x00000000        0x0 c:/program files (x86)/microchip/xc32/v1.21/bin/../lib/gcc/pic32mx/4.5.2/../../../../pic32mx/lib\libpic32.a(vector9.o)

.bss%z132       0x00000000        0x0
 .bss           0x00000000        0x0 c:/program files (x86)/microchip/xc32/v1.21/bin/../lib/gcc/pic32mx/4.5.2/../../../../pic32mx/lib\libpic32.a(vector8.o)

.data%z133      0x00000000        0x0
 .data          0x00000000        0x0 c:/program files (x86)/microchip/xc32/v1.21/bin/../lib/gcc/pic32mx/4.5.2/../../../../pic32mx/lib\libpic32.a(vector8.o)

.bss%z134       0x00000000        0x0
 .bss           0x00000000        0x0 c:/program files (x86)/microchip/xc32/v1.21/bin/../lib/gcc/pic32mx/4.5.2/../../../../pic32mx/lib\libpic32.a(vector7.o)

.data%z135      0x00000000        0x0
 .data          0x00000000        0x0 c:/program files (x86)/microchip/xc32/v1.21/bin/../lib/gcc/pic32mx/4.5.2/../../../../pic32mx/lib\libpic32.a(vector7.o)

.bss%z136       0x00000000        0x0
 .bss           0x00000000        0x0 c:/program files (x86)/microchip/xc32/v1.21/bin/../lib/gcc/pic32mx/4.5.2/../../../../pic32mx/lib\libpic32.a(vector6.o)

.data%z137      0x00000000        0x0
 .data          0x00000000        0x0 c:/program files (x86)/microchip/xc32/v1.21/bin/../lib/gcc/pic32mx/4.5.2/../../../../pic32mx/lib\libpic32.a(vector6.o)

.bss%z138       0x00000000        0x0
 .bss           0x00000000        0x0 c:/program files (x86)/microchip/xc32/v1.21/bin/../lib/gcc/pic32mx/4.5.2/../../../../pic32mx/lib\libpic32.a(vector5.o)

.data%z139      0x00000000        0x0
 .data          0x00000000        0x0 c:/program files (x86)/microchip/xc32/v1.21/bin/../lib/gcc/pic32mx/4.5.2/../../../../pic32mx/lib\libpic32.a(vector5.o)

.bss%z140       0x00000000        0x0
 .bss           0x00000000        0x0 c:/program files (x86)/microchip/xc32/v1.21/bin/../lib/gcc/pic32mx/4.5.2/../../../../pic32mx/lib\libpic32.a(vector4.o)

.data%z141      0x00000000        0x0
 .data          0x00000000        0x0 c:/program files (x86)/microchip/xc32/v1.21/bin/../lib/gcc/pic32mx/4.5.2/../../../../pic32mx/lib\libpic32.a(vector4.o)

.bss%z142       0x00000000        0x0
 .bss           0x00000000        0x0 c:/program files (x86)/microchip/xc32/v1.21/bin/../lib/gcc/pic32mx/4.5.2/../../../../pic32mx/lib\libpic32.a(vector3.o)

.data%z143      0x00000000        0x0
 .data          0x00000000        0x0 c:/program files (x86)/microchip/xc32/v1.21/bin/../lib/gcc/pic32mx/4.5.2/../../../../pic32mx/lib\libpic32.a(vector3.o)

.bss%z144       0x00000000        0x0
 .bss           0x00000000        0x0 c:/program files (x86)/microchip/xc32/v1.21/bin/../lib/gcc/pic32mx/4.5.2/../../../../pic32mx/lib\libpic32.a(vector2.o)

.data%z145      0x00000000        0x0
 .data          0x00000000        0x0 c:/program files (x86)/microchip/xc32/v1.21/bin/../lib/gcc/pic32mx/4.5.2/../../../../pic32mx/lib\libpic32.a(vector2.o)

.bss%z146       0x00000000        0x0
 .bss           0x00000000        0x0 c:/program files (x86)/microchip/xc32/v1.21/bin/../lib/gcc/pic32mx/4.5.2/../../../../pic32mx/lib\libpic32.a(vector1.o)

.data%z147      0x00000000        0x0
 .data          0x00000000        0x0 c:/program files (x86)/microchip/xc32/v1.21/bin/../lib/gcc/pic32mx/4.5.2/../../../../pic32mx/lib\libpic32.a(vector1.o)

.bss%z148       0x00000000        0x0
 .bss           0x00000000        0x0 c:/program files (x86)/microchip/xc32/v1.21/bin/../lib/gcc/pic32mx/4.5.2/../../../../pic32mx/lib\libpic32.a(vector0.o)

.data%z149      0x00000000        0x0
 .data          0x00000000        0x0 c:/program files (x86)/microchip/xc32/v1.21/bin/../lib/gcc/pic32mx/4.5.2/../../../../pic32mx/lib\libpic32.a(vector0.o)

.bss%z150       0x00000000        0x0
 .bss           0x00000000        0x0 c:/program files (x86)/microchip/xc32/v1.21/bin/../lib/gcc/pic32mx/4.5.2/../../../../pic32mx/lib\libpic32.a(general-exception.o)

.data%z151      0x00000000        0x0
 .data          0x00000000        0x0 c:/program files (x86)/microchip/xc32/v1.21/bin/../lib/gcc/pic32mx/4.5.2/../../../../pic32mx/lib\libpic32.a(general-exception.o)

.bss%z152       0x00000000        0x0
 .bss           0x00000000        0x0 c:/program files (x86)/microchip/xc32/v1.21/bin/../lib/gcc/pic32mx/4.5.2/../../../../pic32mx/lib\libpic32.a(default-nmi-handler.o)

.data%z153      0x00000000        0x0
 .data          0x00000000        0x0 c:/program files (x86)/microchip/xc32/v1.21/bin/../lib/gcc/pic32mx/4.5.2/../../../../pic32mx/lib\libpic32.a(default-nmi-handler.o)

.bss%z154       0x00000000        0x0
 .bss           0x00000000        0x0 c:/program files (x86)/microchip/xc32/v1.21/bin/../lib/gcc/pic32mx/4.5.2/../../../../pic32mx/lib\libpic32.a(default-on-bootstrap.o)

.data%z155      0x00000000        0x0
 .data          0x00000000        0x0 c:/program files (x86)/microchip/xc32/v1.21/bin/../lib/gcc/pic32mx/4.5.2/../../../../pic32mx/lib\libpic32.a(default-on-bootstrap.o)

.bss%z156       0x00000000        0x0
 .bss           0x00000000        0x0 c:/program files (x86)/microchip/xc32/v1.21/bin/../lib/gcc/pic32mx/4.5.2/../../../../pic32mx/lib\libpic32.a(default-on-reset.o)

.data%z157      0x00000000        0x0
 .data          0x00000000        0x0 c:/program files (x86)/microchip/xc32/v1.21/bin/../lib/gcc/pic32mx/4.5.2/../../../../pic32mx/lib\libpic32.a(default-on-reset.o)

.bss%z158       0x00000000        0x0
 .bss           0x00000000        0x0 c:/program files (x86)/microchip/xc32/v1.21/bin/../lib/gcc/pic32mx/4.5.2/../../../../pic32mx/lib\libpic32.a(default-bootstrap-exception-handler.o)

.data%z159      0x00000000        0x0
 .data          0x00000000        0x0 c:/program files (x86)/microchip/xc32/v1.21/bin/../lib/gcc/pic32mx/4.5.2/../../../../pic32mx/lib\libpic32.a(default-bootstrap-exception-handler.o)

.bss%z160       0x00000000        0x0
 .bss           0x00000000        0x0 c:/program files (x86)/microchip/xc32/v1.21/bin/../lib/gcc/pic32mx/4.5.2/../../../../pic32mx/lib\libpic32.a(memcpy.o)

.data%z161      0x00000000        0x0
 .data          0x00000000        0x0 c:/program files (x86)/microchip/xc32/v1.21/bin/../lib/gcc/pic32mx/4.5.2/../../../../pic32mx/lib\libpic32.a(memcpy.o)

.bss%z162       0x00000000        0x0
 .bss           0x00000000        0x0 c:/program files (x86)/microchip/xc32/v1.21/bin/../lib/gcc/pic32mx/4.5.2/../../../../pic32mx/lib\libmchp_peripheral_32MX460F512L.a(read_core_timer_lib.o)

.data%z163      0x00000000        0x0
 .data          0x00000000        0x0 c:/program files (x86)/microchip/xc32/v1.21/bin/../lib/gcc/pic32mx/4.5.2/../../../../pic32mx/lib\libmchp_peripheral_32MX460F512L.a(read_core_timer_lib.o)

.bss%z164       0x00000000        0x0
 .bss           0x00000000        0x0 c:/program files (x86)/microchip/xc32/v1.21/bin/../lib/gcc/pic32mx/4.5.2/../../../../pic32mx/lib\libmchp_peripheral_32MX460F512L.a(_rtcc_wait_clock_off_lib.o)

.data%z165      0x00000000        0x0
 .data          0x00000000        0x0 c:/program files (x86)/microchip/xc32/v1.21/bin/../lib/gcc/pic32mx/4.5.2/../../../../pic32mx/lib\libmchp_peripheral_32MX460F512L.a(_rtcc_wait_clock_off_lib.o)

.bss%z166       0x00000000        0x0
 .bss           0x00000000        0x0 c:/program files (x86)/microchip/xc32/v1.21/bin/../lib/gcc/pic32mx/4.5.2/../../../../pic32mx/lib\libmchp_peripheral_32MX460F512L.a(_rtcc_set_time_and_date_lib.o)

.data%z167      0x00000000        0x0
 .data          0x00000000        0x0 c:/program files (x86)/microchip/xc32/v1.21/bin/../lib/gcc/pic32mx/4.5.2/../../../../pic32mx/lib\libmchp_peripheral_32MX460F512L.a(_rtcc_set_time_and_date_lib.o)

.bss%z168       0x00000000        0x0
 .bss           0x00000000        0x0 c:/program files (x86)/microchip/xc32/v1.21/bin/../lib/gcc/pic32mx/4.5.2/../../../../pic32mx/lib\libmchp_peripheral_32MX460F512L.a(int_tbl_lib.o)

.data%z169      0x00000000        0x0
 .data          0x00000000        0x0 c:/program files (x86)/microchip/xc32/v1.21/bin/../lib/gcc/pic32mx/4.5.2/../../../../pic32mx/lib\libmchp_peripheral_32MX460F512L.a(int_tbl_lib.o)

.bss%z170       0x00000000        0x0
 .bss           0x00000000        0x0 c:/program files (x86)/microchip/xc32/v1.21/bin/../lib/gcc/pic32mx/4.5.2/../../../../pic32mx/lib\libmchp_peripheral_32MX460F512L.a(int_enable_interrupts_lib.o)

.data%z171      0x00000000        0x0
 .data          0x00000000        0x0 c:/program files (x86)/microchip/xc32/v1.21/bin/../lib/gcc/pic32mx/4.5.2/../../../../pic32mx/lib\libmchp_peripheral_32MX460F512L.a(int_enable_interrupts_lib.o)

.bss%z172       0x00000000        0x0
 .bss           0x00000000        0x0 c:/program files (x86)/microchip/xc32/v1.21/bin/../lib/gcc/pic32mx/4.5.2/../../../../pic32mx/lib\libmchp_peripheral_32MX460F512L.a(rtcc_set_time_lib.o)

.data%z173      0x00000000        0x0
 .data          0x00000000        0x0 c:/program files (x86)/microchip/xc32/v1.21/bin/../lib/gcc/pic32mx/4.5.2/../../../../pic32mx/lib\libmchp_peripheral_32MX460F512L.a(rtcc_set_time_lib.o)

.bss%z174       0x00000000        0x0
 .bss           0x00000000        0x0 c:/program files (x86)/microchip/xc32/v1.21/bin/../lib/gcc/pic32mx/4.5.2/../../../../pic32mx/lib\libmchp_peripheral_32MX460F512L.a(rtcc_set_date_lib.o)

.data%z175      0x00000000        0x0
 .data          0x00000000        0x0 c:/program files (x86)/microchip/xc32/v1.21/bin/../lib/gcc/pic32mx/4.5.2/../../../../pic32mx/lib\libmchp_peripheral_32MX460F512L.a(rtcc_set_date_lib.o)

.bss%z176       0x00000000        0x0
 .bss           0x00000000        0x0 c:/program files (x86)/microchip/xc32/v1.21/bin/../lib/gcc/pic32mx/4.5.2/../../../../pic32mx/lib\libmchp_peripheral_32MX460F512L.a(rtcc_init_lib.o)

.data%z177      0x00000000        0x0
 .data          0x00000000        0x0 c:/program files (x86)/microchip/xc32/v1.21/bin/../lib/gcc/pic32mx/4.5.2/../../../../pic32mx/lib\libmchp_peripheral_32MX460F512L.a(rtcc_init_lib.o)

.bss%z178       0x00000000        0x0
 .bss           0x00000000        0x0 c:/program files (x86)/microchip/xc32/v1.21/bin/../lib/gcc/pic32mx/4.5.2/../../../../pic32mx/lib\libmchp_peripheral_32MX460F512L.a(int_enable_mv_int_lib.o)

.data%z179      0x00000000        0x0
 .data          0x00000000        0x0 c:/program files (x86)/microchip/xc32/v1.21/bin/../lib/gcc/pic32mx/4.5.2/../../../../pic32mx/lib\libmchp_peripheral_32MX460F512L.a(int_enable_mv_int_lib.o)

.bss%z180       0x00000000        0x0
 .bss           0x00000000        0x0 c:/program files (x86)/microchip/xc32/v1.21/bin/../lib/gcc/pic32mx/4.5.2/../../../../pic32mx/lib\libmchp_peripheral_32MX460F512L.a(int_restore_interrupts_lib.o)

.data%z181      0x00000000        0x0
 .data          0x00000000        0x0 c:/program files (x86)/microchip/xc32/v1.21/bin/../lib/gcc/pic32mx/4.5.2/../../../../pic32mx/lib\libmchp_peripheral_32MX460F512L.a(int_restore_interrupts_lib.o)

.bss%z182       0x00000000        0x0
 .bss           0x00000000        0x0 c:/program files (x86)/microchip/xc32/v1.21/bin/../lib/gcc/pic32mx/4.5.2/../../../../pic32mx/lib\libmchp_peripheral_32MX460F512L.a(int_disable_interrupts_lib.o)

.data%z183      0x00000000        0x0
 .data          0x00000000        0x0 c:/program files (x86)/microchip/xc32/v1.21/bin/../lib/gcc/pic32mx/4.5.2/../../../../pic32mx/lib\libmchp_peripheral_32MX460F512L.a(int_disable_interrupts_lib.o)

.bss%z184       0x00000000        0x0
 .bss           0x00000000        0x0 c:/program files (x86)/microchip/xc32/v1.21/bin/../lib/gcc/pic32mx/4.5.2/../../../../pic32mx/lib\libmchp_peripheral_32MX460F512L.a(pcache.o)

.data%z185      0x00000000        0x0
 .data          0x00000000        0x0 c:/program files (x86)/microchip/xc32/v1.21/bin/../lib/gcc/pic32mx/4.5.2/../../../../pic32mx/lib\libmchp_peripheral_32MX460F512L.a(pcache.o)

.bss%z186       0x00000000        0x0
 .bss           0x00000000        0x0 c:/program files (x86)/microchip/xc32/v1.21/bin/../lib/gcc/pic32mx/4.5.2/../../../../pic32mx/lib/./proc/32MX460F512L\processor.o

.data%z187      0x00000000        0x0
 .data          0x00000000        0x0 c:/program files (x86)/microchip/xc32/v1.21/bin/../lib/gcc/pic32mx/4.5.2/../../../../pic32mx/lib/./proc/32MX460F512L\processor.o

.bss%z188       0x00000000        0x0
 .bss           0x00000000        0x0 c:/program files (x86)/microchip/xc32/v1.21/bin/../lib/gcc/pic32mx/4.5.2/../../../../pic32mx/lib/./proc/32MX460F512L\default_isr_vectors.o

.data%z189      0x00000000        0x0
 .data          0x00000000        0x0 c:/program files (x86)/microchip/xc32/v1.21/bin/../lib/gcc/pic32mx/4.5.2/../../../../pic32mx/lib/./proc/32MX460F512L\default_isr_vectors.o

.data%z190      0x00000000        0x0
 .data          0x00000000        0x0 build/C32_PIC32MX460F512L/production/SST25VF016.o

.bss%z191       0x00000000        0x0
 .bss           0x00000000        0x0 build/C32_PIC32MX460F512L/production/MainDemo.o

.bss%z192       0x00000000        0x0
 .bss           0x00000000        0x0 build/C32_PIC32MX460F512L/production/TouchScreenResistive.o

.data%z193      0x00000000        0x0
 .data          0x00000000        0x0 build/C32_PIC32MX460F512L/production/TouchScreenResistive.o

.bss%z194       0x00000000        0x0
 .bss           0x00000000        0x0 build/C32_PIC32MX460F512L/production/cpld.o

.data%z195      0x00000000        0x0
 .data          0x00000000        0x0 build/C32_PIC32MX460F512L/production/cpld.o

.bss%z196       0x00000000        0x0
 .bss           0x00000000        0x0 build/C32_PIC32MX460F512L/production/InternalResourceXC32.o

.data%z197      0x00000000        0x0
 .data          0x00000000        0x0 build/C32_PIC32MX460F512L/production/InternalResourceXC32.o

.bss%z198       0x00000000        0x0
 .bss           0x00000000        0x0 build/C32_PIC32MX460F512L/production/rtcc.o

.data%z199      0x00000000        0x0
 .data          0x00000000        0x0 build/C32_PIC32MX460F512L/production/drv_spi.o

.bss%z200       0x00000000        0x0
 .bss           0x00000000        0x0 build/C32_PIC32MX460F512L/production/TouchScreen.o

.bss%z201       0x00000000        0x0
 .bss           0x00000000        0x0 build/C32_PIC32MX460F512L/production/CustomControlDemo.o

.data%z202      0x00000000        0x0
 .data          0x00000000        0x0 build/C32_PIC32MX460F512L/production/CustomControlDemo.o

.bss%z203       0x00000000        0x0
 .bss           0x00000000        0x0 build/C32_PIC32MX460F512L/production/Beep.o

.data%z204      0x00000000        0x0
 .data          0x00000000        0x0 build/C32_PIC32MX460F512L/production/Beep.o

.bss%z205       0x00000000        0x0
 .bss           0x00000000        0x0 build/C32_PIC32MX460F512L/production/TimeDelay.o

.data%z206      0x00000000        0x0
 .data          0x00000000        0x0 build/C32_PIC32MX460F512L/production/TimeDelay.o

.bss%z207       0x00000000        0x0
 .bss           0x00000000        0x0 build/C32_PIC32MX460F512L/production/user.o

.data%z208      0x00000000        0x0
 .data          0x00000000        0x0 build/C32_PIC32MX460F512L/production/user.o

.bss%z209       0x00000000        0x0
 .bss           0x00000000        0x0 build/C32_PIC32MX460F512L/production/system.o

.data%z210      0x00000000        0x0
 .data          0x00000000        0x0 build/C32_PIC32MX460F512L/production/system.o

.bss%z211       0x00000000        0x0
 .bss           0x00000000        0x0 build/C32_PIC32MX460F512L/production/interrupts.o

.data%z212      0x00000000        0x0
 .data          0x00000000        0x0 build/C32_PIC32MX460F512L/production/interrupts.o

.bss%z213       0x00000000        0x0
 .bss           0x00000000        0x0 build/C32_PIC32MX460F512L/production/exceptions.o

.data%z214      0x00000000        0x0
 .data          0x00000000        0x0 build/C32_PIC32MX460F512L/production/exceptions.o

.bss%z215       0x00000000        0x0
 .bss           0x00000000        0x0 build/C32_PIC32MX460F512L/production/configuration_bits.o

.data%z216      0x00000000        0x0
 .data          0x00000000        0x0 build/C32_PIC32MX460F512L/production/configuration_bits.o

.bss%z217       0x00000000        0x0
 .bss           0x00000000        0x0 build/C32_PIC32MX460F512L/production/graphics/Window.o

.data%z218      0x00000000        0x0
 .data          0x00000000        0x0 build/C32_PIC32MX460F512L/production/graphics/Window.o

.bss%z219       0x00000000        0x0
 .bss           0x00000000        0x0 build/C32_PIC32MX460F512L/production/graphics/Transitions_weak.o

.data%z220      0x00000000        0x0
 .data          0x00000000        0x0 build/C32_PIC32MX460F512L/production/graphics/Transitions_weak.o

.bss%z221       0x00000000        0x0
 .bss           0x00000000        0x0 build/C32_PIC32MX460F512L/production/graphics/Transitions.o

.data%z222      0x00000000        0x0
 .data          0x00000000        0x0 build/C32_PIC32MX460F512L/production/graphics/Transitions.o

.bss%z223       0x00000000        0x0
 .bss           0x00000000        0x0 build/C32_PIC32MX460F512L/production/graphics/TextEntry.o

.data%z224      0x00000000        0x0
 .data          0x00000000        0x0 build/C32_PIC32MX460F512L/production/graphics/TextEntry.o

.bss%z225       0x00000000        0x0
 .bss           0x00000000        0x0 build/C32_PIC32MX460F512L/production/graphics/Template.o

.data%z226      0x00000000        0x0
 .data          0x00000000        0x0 build/C32_PIC32MX460F512L/production/graphics/Template.o

.bss%z227       0x00000000        0x0
 .bss           0x00000000        0x0 build/C32_PIC32MX460F512L/production/graphics/StaticText.o

.data%z228      0x00000000        0x0
 .data          0x00000000        0x0 build/C32_PIC32MX460F512L/production/graphics/StaticText.o

.bss%z229       0x00000000        0x0
 .bss           0x00000000        0x0 build/C32_PIC32MX460F512L/production/graphics/Slider.o

.data%z230      0x00000000        0x0
 .data          0x00000000        0x0 build/C32_PIC32MX460F512L/production/graphics/Slider.o

.bss%z231       0x00000000        0x0
 .bss           0x00000000        0x0 build/C32_PIC32MX460F512L/production/graphics/RoundDial.o

.bss%z232       0x00000000        0x0
 .bss           0x00000000        0x0 build/C32_PIC32MX460F512L/production/graphics/RadioButton.o

.data%z233      0x00000000        0x0
 .data          0x00000000        0x0 build/C32_PIC32MX460F512L/production/graphics/RadioButton.o

.bss%z234       0x00000000        0x0
 .bss           0x00000000        0x0 build/C32_PIC32MX460F512L/production/graphics/ProgressBar.o

.data%z235      0x00000000        0x0
 .data          0x00000000        0x0 build/C32_PIC32MX460F512L/production/graphics/ProgressBar.o

.data%z236      0x00000000        0x0
 .data          0x00000000        0x0 build/C32_PIC32MX460F512L/production/graphics/Primitive.o

.bss%z237       0x00000000        0x0
 .bss           0x00000000        0x0 build/C32_PIC32MX460F512L/production/graphics/Picture.o

.data%z238      0x00000000        0x0
 .data          0x00000000        0x0 build/C32_PIC32MX460F512L/production/graphics/Picture.o

.bss%z239       0x00000000        0x0
 .bss           0x00000000        0x0 build/C32_PIC32MX460F512L/production/graphics/Palette.o

.data%z240      0x00000000        0x0
 .data          0x00000000        0x0 build/C32_PIC32MX460F512L/production/graphics/Palette.o

.bss%z241       0x00000000        0x0
 .bss           0x00000000        0x0 build/C32_PIC32MX460F512L/production/graphics/Meter.o

.data%z242      0x00000000        0x0
 .data          0x00000000        0x0 build/C32_PIC32MX460F512L/production/graphics/Meter.o

.bss%z243       0x00000000        0x0
 .bss           0x00000000        0x0 build/C32_PIC32MX460F512L/production/graphics/ListBox.o

.data%z244      0x00000000        0x0
 .data          0x00000000        0x0 build/C32_PIC32MX460F512L/production/graphics/ListBox.o

.bss%z245       0x00000000        0x0
 .bss           0x00000000        0x0 build/C32_PIC32MX460F512L/production/graphics/GroupBox.o

.data%z246      0x00000000        0x0
 .data          0x00000000        0x0 build/C32_PIC32MX460F512L/production/graphics/GroupBox.o

.bss%z247       0x00000000        0x0
 .bss           0x00000000        0x0 build/C32_PIC32MX460F512L/production/graphics/Grid.o

.data%z248      0x00000000        0x0
 .data          0x00000000        0x0 build/C32_PIC32MX460F512L/production/graphics/Grid.o

.bss%z249       0x00000000        0x0
 .bss           0x00000000        0x0 build/C32_PIC32MX460F512L/production/graphics/GOLSchemeDefault.o

.data%z250      0x00000000        0x0
 .data          0x00000000        0x0 build/C32_PIC32MX460F512L/production/graphics/GOLSchemeDefault.o

.bss%z251       0x00000000        0x0
 .bss           0x00000000        0x0 build/C32_PIC32MX460F512L/production/graphics/GOL.o

.data%z252      0x00000000        0x0
 .data          0x00000000        0x0 build/C32_PIC32MX460F512L/production/graphics/GOL.o

.bss%z253       0x00000000        0x0
 .bss           0x00000000        0x0 build/C32_PIC32MX460F512L/production/graphics/EditBox.o

.data%z254      0x00000000        0x0
 .data          0x00000000        0x0 build/C32_PIC32MX460F512L/production/graphics/EditBox.o

.data%z255      0x00000000        0x0
 .data          0x00000000        0x0 build/C32_PIC32MX460F512L/production/graphics/DigitalMeter.o

.bss%z256       0x00000000        0x0
 .bss           0x00000000        0x0 build/C32_PIC32MX460F512L/production/graphics/CheckBox.o

.data%z257      0x00000000        0x0
 .data          0x00000000        0x0 build/C32_PIC32MX460F512L/production/graphics/CheckBox.o

.bss%z258       0x00000000        0x0
 .bss           0x00000000        0x0 build/C32_PIC32MX460F512L/production/graphics/Chart.o

.data%z259      0x00000000        0x0
 .data          0x00000000        0x0 build/C32_PIC32MX460F512L/production/graphics/Chart.o

.bss%z260       0x00000000        0x0
 .bss           0x00000000        0x0 build/C32_PIC32MX460F512L/production/graphics/Button.o

.data%z261      0x00000000        0x0
 .data          0x00000000        0x0 build/C32_PIC32MX460F512L/production/graphics/Button.o

.bss%z262       0x00000000        0x0
 .bss           0x00000000        0x0 build/C32_PIC32MX460F512L/production/graphics/AnalogClock.o

.data%z263      0x00000000        0x0
 .data          0x00000000        0x0 build/C32_PIC32MX460F512L/production/graphics/AnalogClock.o

.bss%z264       0x00000000        0x0
 .bss           0x00000000        0x0 build/C32_PIC32MX460F512L/production/graphics/drivers/ILI9341.o

.data%z265      0x00000000        0x0
 .data          0x00000000        0x0 build/C32_PIC32MX460F512L/production/graphics/drivers/ILI9341.o

.bss%z266       0x00000000        0x0
 .bss           0x00000000        0x0 c:/program files (x86)/microchip/xc32/v1.21/bin/../lib/gcc/pic32mx/4.5.2/../../../../pic32mx/lib/crt0.o

.data%z267      0x00000000        0x0
 .data          0x00000000        0x0 c:/program files (x86)/microchip/xc32/v1.21/bin/../lib/gcc/pic32mx/4.5.2/../../../../pic32mx/lib/crt0.o

.text           0x9d000020     0xa150
 .text          0x9d000020     0xa150 build/C32_PIC32MX460F512L/production/MainDemo.o
                0x9d000020                main
                0x9d0003f8                GOLMsgCallback
                0x9d000a64                GOLDrawCallback
                0x9d001d8c                StartScreen
                0x9d0021e8                CreatePage
                0x9d002454                CreatePullDown
                0x9d00255c                AddItemList
                0x9d00264c                MsgPullDown
                0x9d002828                DisplayPullDown
                0x9d002b10                CreateButtons
                0x9d002df8                MsgButtons
                0x9d0031a0                CreateCheckBoxes
                0x9d003348                MsgCheckBoxes
                0x9d0034f0                CreateRadioButtons
                0x9d003824                MsgRadioButtons
                0x9d0038bc                CreateStaticText
                0x9d003aa0                MsgStaticText
                0x9d003d4c                CreateSlider
                0x9d003ed0                DrawSliderCursor
                0x9d003fc8                MsgSlider
                0x9d00434c                CreateProgressBar
                0x9d004494                MsgProgressBar
                0x9d00452c                CreateListBox
                0x9d004828                MsgListBox
                0x9d004d60                CreateEditBox
                0x9d005288                MsgEditBox
                0x9d0057ac                CreateDateTime
                0x9d0060c8                updateDateTimeEb
                0x9d006310                ShowPullDownMenu
                0x9d006708                RemovePullDownMenu
                0x9d006868                MsgSetDate
                0x9d006c7c                MsgDateTime
                0x9d0070f8                UpdateRTCCDates
                0x9d007258                CreateMeter
                0x9d00753c                MsgMeter
                0x9d00768c                UpdateMeter
                0x9d007a30                CreateDial
                0x9d007be8                MsgDial
                0x9d007e98                CreatePicture
                0x9d008024                MsgPicture
                0x9d0081c8                CreateCustomControl
                0x9d008340                MsgCustomControl
                0x9d008688                CreateSignature
                0x9d0086e0                PanelSignature
                0x9d008790                MsgSignature
                0x9d008a7c                CreatePotentiometer
                0x9d008ad4                PanelPotentiometer
                0x9d008c58                GetPotSamples
                0x9d008cdc                GraphPotentiometer
                0x9d009144                MsgPotentiometer
                0x9d0091dc                CreateECG
                0x9d009234                GetECGSamples
                0x9d0092dc                PanelECG
                0x9d0095b0                GraphECG
                0x9d009a80                MsgECG
                0x9d009b14                ErrorTrap
                0x9d009b74                _T4Interrupt
                0x9d009ca4                TickInit
                0x9d009d78                InitializeBoard

.rodata         0x9d00a170     0x83c0
 .rodata        0x9d00a170     0x83c0 build/C32_PIC32MX460F512L/production/InternalResourceXC32.o
                0x9d00a170                cOnBulbStr
                0x9d00a174                cOffBulbStr
                0x9d00a178                cSelectionStr
                0x9d00a17c                cAlignmentStr
                0x9d00a180                cReturnStr
                0x9d00a184                cMeter1Str
                0x9d00a188                cMeter2Str
                0x9d00a18c                cValueLabelStr
                0x9d00a190                cMoreStr
                0x9d00a194                cBackStr
                0x9d00a198                cGroup1Str
                0x9d00a19c                cGroup2Str
                0x9d00a1a0                cSetTimeDateStr
                0x9d00a1a8                cNormalLoadStr
                0x9d00a1b0                cLightLoadStr
                0x9d00a1b8                cHeavyLoadStr
                0x9d00a1c0                cUseR6PotStr
                0x9d00a1c8                cScanModeStr
                0x9d00a1d0                cScrSelList1
                0x9d00a1f4                cScrSelList2
                0x9d00a214                cScrSelListLang
                0x9d00a224                cLanguage
                0x9d00a230                eOnBulbStr
                0x9d00a234                eOffBulbStr
                0x9d00a238                eSelectionStr
                0x9d00a244                eAlignmentStr
                0x9d00a250                eReturnStr
                0x9d00a254                eMeter1Str
                0x9d00a25c                eMeter2Str
                0x9d00a264                eValueLabelStr
                0x9d00a26c                eMoreStr
                0x9d00a274                eBackStr
                0x9d00a27c                eGroup1Str
                0x9d00a284                eGroup2Str
                0x9d00a28c                eSetTimeDateStr
                0x9d00a2a0                eNormalLoadStr
                0x9d00a2ac                eLightLoadStr
                0x9d00a2b8                eHeavyLoadStr
                0x9d00a2c4                eUseR6PotStr
                0x9d00a2d8                eScanModeStr
                0x9d00a2e4                eScrSelList1
                0x9d00a33c                eScrSelList2
                0x9d00a380                eScrSelListLang
                0x9d00a390                eLanguage
                0x9d00a39c                cTouchScreenStr
                0x9d00a3ac                cButtonStr
                0x9d00a3b0                cCheckBoxStr
                0x9d00a3b4                cRadioButtonStr
                0x9d00a3b8                cGroupBoxStr
                0x9d00a3bc                cStaticTextStr
                0x9d00a3c4                cSliderStr
                0x9d00a3c8                cProgressBarStr
                0x9d00a3cc                cListBoxStr
                0x9d00a3d0                cEditBoxStr
                0x9d00a3d4                cMeterStr
                0x9d00a3d8                cDialStr
                0x9d00a3dc                cPictureStr
                0x9d00a3e0                cCustomStr
                0x9d00a3e8                cSignatureStr
                0x9d00a3ec                cPlottingStr
                0x9d00a3f0                cEcgStr
                0x9d00a3f4                cHomeStr
                0x9d00a3f8                cHomeLinesStr
                0x9d00a400                cLowStr
                0x9d00a404                cHighStr
                0x9d00a408                cOnStr
                0x9d00a40c                cOffStr
                0x9d00a410                cEnableStr
                0x9d00a414                cDisabledStr
                0x9d00a418                cTextLeftStr
                0x9d00a420                cTextBottomStr
                0x9d00a428                cRb1Str
                0x9d00a42c                cRb2Str
                0x9d00a430                cRb3Str
                0x9d00a434                cRb4Str
                0x9d00a43c                cRb5Str
                0x9d00a440                cRb6Str
                0x9d00a444                cStaticTextLstStr
                0x9d00a460                cLeftStr
                0x9d00a464                cCenterStr
                0x9d00a468                cRightStr
                0x9d00a46c                cPIC24SpeedStr
                0x9d00a47c                cQuestionStr
                0x9d00a480                cSingleStr
                0x9d00a484                cAlignCenterStr
                0x9d00a488                cListboxLstStr
                0x9d00a4a8                cCallingStr
                0x9d00a4b0                cHoldingStr
                0x9d00a4b8                cHoldStr
                0x9d00a4bc                cAccelStr
                0x9d00a4c0                cDecelStr
                0x9d00a4c4                cScaleStr
                0x9d00a4c8                cAnimateStr
                0x9d00a4cc                cLeftArrowStr
                0x9d00a4d0                cRightArrowStr
                0x9d00a4d4                cUpArrowStr
                0x9d00a4d8                cDownArrowStr
                0x9d00a4dc                cExitStr
                0x9d00a4e0                cSetDateTimeStr
                0x9d00a4e8                eTouchScreenStr
                0x9d00a504                eButtonStr
                0x9d00a50c                eCheckBoxStr
                0x9d00a518                eRadioButtonStr
                0x9d00a524                eGroupBoxStr
                0x9d00a530                eStaticTextStr
                0x9d00a53c                eSliderStr
                0x9d00a544                eProgressBarStr
                0x9d00a554                eListBoxStr
                0x9d00a560                eEditBoxStr
                0x9d00a56c                eMeterStr
                0x9d00a574                eDialStr
                0x9d00a57c                ePictureStr
                0x9d00a584                eCustomStr
                0x9d00a594                eSignatureStr
                0x9d00a5a0                ePlottingStr
                0x9d00a5ac                eEcgStr
                0x9d00a5b0                eHomeStr
                0x9d00a5b8                eHomeLinesStr
                0x9d00a5c4                eLowStr
                0x9d00a5c8                eHighStr
                0x9d00a5d0                eOnStr
                0x9d00a5d4                eOffStr
                0x9d00a5d8                eEnableStr
                0x9d00a5e0                eDisabledStr
                0x9d00a5ec                eTextLeftStr
                0x9d00a5f8                eTextBottomStr
                0x9d00a604                eRb1Str
                0x9d00a608                eRb2Str
                0x9d00a60c                eRb3Str
                0x9d00a610                eRb4Str
                0x9d00a618                eRb5Str
                0x9d00a61c                eRb6Str
                0x9d00a620                eStaticTextLstStr
                0x9d00a658                eLeftStr
                0x9d00a65c                eCenterStr
                0x9d00a660                eRightStr
                0x9d00a664                ePIC24SpeedStr
                0x9d00a67c                eQuestionStr
                0x9d00a680                eSingleStr
                0x9d00a688                eAlignCenterStr
                0x9d00a690                eListboxLstStr
                0x9d00a700                eCallingStr
                0x9d00a70c                eHoldingStr
                0x9d00a718                eHoldStr
                0x9d00a720                eAccelStr
                0x9d00a728                eDecelStr
                0x9d00a730                eScaleStr
                0x9d00a738                eAnimateStr
                0x9d00a740                eLeftArrowStr
                0x9d00a744                eRightArrowStr
                0x9d00a748                eUpArrowStr
                0x9d00a74c                eDownArrowStr
                0x9d00a750                eExitStr
                0x9d00a758                eSetDateTimeStr
                0x9d00a76c                monofont
                0x9d00a774                __monofont
                0x9d00a98c                GOLSmallFont
                0x9d00a994                __GOLSmallFont
                0x9d00b8e0                GOLFontDefault
                0x9d00b8e8                __GOLFontDefault
                0x9d00d17c                Engine4
                0x9d00d198                __Engine4
                0x9d00d924                greenphone
                0x9d00d940                __greenphone
                0x9d00dbbc                intro
                0x9d00dbd8                __intro
                0x9d00f8d4                mchpIcon
                0x9d00f8dc                __mchpIcon
                0x9d00f968                mchpLogo
                0x9d00f984                __mchpLogo
                0x9d00ff18                arrowDown
                0x9d00ff20                __arrowDown
                0x9d010030                arrowUp
                0x9d010038                __arrowUp
                0x9d010148                bulboff
                0x9d010164                __bulboff
                0x9d0105f0                bulbon
                0x9d01060c                __bulbon
                0x9d010b54                Engine1
                0x9d010b70                __Engine1
                0x9d0112c4                Engine2
                0x9d0112e0                __Engine2
                0x9d011a34                Engine3
                0x9d011a50                __Engine3
                0x9d0121b8                redphone
                0x9d0121d4                __redphone
                0x9d01249c                mchpIcon0
                0x9d0124a4                __mchpIcon0

.text           0x9d012530    0x1c968
 .text          0x9d012530     0x5d5c build/C32_PIC32MX460F512L/production/graphics/Primitive.o
                0x9d012530                SetClipRgn
                0x9d012590                SetClip
                0x9d0126ac                Line
                0x9d012d04                InitGraph
                0x9d012d6c                Arc
                0x9d013f0c                Bevel
                0x9d01486c                FillBevel
                0x9d0152e8                DrawPoly
                0x9d015470                SetFontFlash
                0x9d015508                SetFontExternal
                0x9d01552c                SetFont
                0x9d0155b0                OutCharGetInfoFlash
                0x9d015788                OutCharGetInfoExternal
                0x9d0157b4                OutCharRender
                0x9d015adc                OutChar
                0x9d015c68                OutText
                0x9d015cfc                OutTextXY
                0x9d015d84                GetTextWidthRam
                0x9d015db0                GetTextWidthFlash
                0x9d015f48                GetTextWidthExternal
                0x9d015f74                GetTextWidth
                0x9d016020                GetTextHeight
                0x9d01609c                GetImageWidth
                0x9d016118                GetImageHeight
                0x9d016194                PutImage1BPP
                0x9d01662c                PutImage4BPP
                0x9d016ac4                PutImage8BPP
                0x9d016e04                PutImage16BPP
                0x9d0170d0                PutImagePartial
                0x9d017380                GetSineCosine
                0x9d0175b4                DrawArc
                0x9d017808                DecodeRLE8
                0x9d0179dc                PutImageRLE8BPP
                0x9d017be8                DecodeRLE4
                0x9d017e68                PutImageRLE4BPP
                0x9d018078                GetCirclePoint
 .text          0x9d01828c     0x1f40 build/C32_PIC32MX460F512L/production/graphics/Meter.o
                0x9d01828c                MtrCreate
                0x9d0184dc                MtrCalcDimensions
                0x9d018728                MtrSetVal
                0x9d0187cc                MtrMsgDefault
                0x9d01884c                MtrTranslateMsg
                0x9d0188f0                MtrDraw
 .text          0x9d01a1cc     0x1c14 build/C32_PIC32MX460F512L/production/graphics/Slider.o
                0x9d01a1cc                SldCreate
                0x9d01a38c                SldSetThumbSize
                0x9d01a424                SldGetWidth
                0x9d01a540                SldGetHeight
                0x9d01a65c                SldGetMinMaxPos
                0x9d01a788                SldSetRange
                0x9d01a8dc                SldSetPage
                0x9d01a998                SldSetPos
                0x9d01ab50                SldMsgDefault
                0x9d01aed0                SldTranslateMsg
                0x9d01b12c                SldDraw
 .text          0x9d01bde0     0x1b94 build/C32_PIC32MX460F512L/production/graphics/GOL.o
                0x9d01bde0                GOLGetFocusPrev
                0x9d01beec                GOLGetFocusNext
                0x9d01bfcc                GOLSetFocus
                0x9d01c078                GOLCanBeFocused
                0x9d01c134                GOLCreateScheme
                0x9d01c194                GOLInit
                0x9d01c1d0                GOLFree
                0x9d01c260                GOLDeleteObject
                0x9d01c37c                GOLDeleteObjectByID
                0x9d01c3e4                GOLFindObject
                0x9d01c458                GOLAddObject
                0x9d01c4d8                GOLDraw
                0x9d01c5c8                GOLRedrawRec
                0x9d01c7f8                GOLMsg
                0x9d01c8f0                GOLPanelDrawTsk
                0x9d01d180                GOLTwoTonePanelDrawTsk
 .text          0x9d01d974     0x1b30 build/C32_PIC32MX460F512L/production/graphics/Button.o
                0x9d01d974                BtnCreate
                0x9d01db48                BtnSetText
                0x9d01dcc0                BtnMsgDefault
                0x9d01ddd8                BtnTranslateMsg
                0x9d01e164                DrawButtonFocus
                0x9d01e388                SetButtonTextPosition
                0x9d01e5d4                BtnDraw
 .text          0x9d01f4a4     0x188c build/C32_PIC32MX460F512L/production/graphics/ListBox.o
                0x9d01f4a4                LbCreate
                0x9d01f738                LbAddItem
                0x9d01f89c                LbDelItem
                0x9d01f974                LbDelItemsList
                0x9d01f9f8                LbGetSel
                0x9d01fa80                LbChangeSel
                0x9d01fb64                LbSetFocusedItem
                0x9d01fc5c                LbGetFocusedItem
                0x9d01fd00                LbTranslateMsg
                0x9d01fea8                LbMsgDefault
                0x9d0201d0                LbDraw
 .text          0x9d020d30     0x1564 build/C32_PIC32MX460F512L/production/graphics/drivers/ILI9341.o
                0x9d020d30                SetRegion
                0x9d020fb8                SetAddress
                0x9d021230                ResetLCD
                0x9d0212b4                WriteCommand
                0x9d02132c                SoftResetLCD
                0x9d02136c                WritePMPIN
                0x9d02139c                WriteData
                0x9d021418                SetReg
                0x9d0214e0                SetLCDPorts
                0x9d021550                Init_MCU
                0x9d021640                ResetDevice
                0x9d021cb8                PutPixel
                0x9d021e2c                GetPixel
                0x9d021f44                IsDeviceBusy
                0x9d021f68                Bar
                0x9d02216c                ClearDevice
 .text          0x9d022294     0x1440 build/C32_PIC32MX460F512L/production/graphics/RoundDial.o
                0x9d022294                RdiaCreate
                0x9d0224d8                RdiaMsgDefault
                0x9d022570                RdiaCosine
                0x9d0226a0                RdiaSine
                0x9d0227d0                RdiaTranslateMsg
                0x9d0230ac                RdiaDraw
 .text          0x9d0236d4     0x12b0 build/C32_PIC32MX460F512L/production/rtcc.o
                0x9d0236d4                RTCCProcessEvents
                0x9d024014                RTCCInit
                0x9d024104                RTCCSet
                0x9d0241bc                RTCCUnlock
                0x9d024208                RTCCSetBinSec
                0x9d0242d0                RTCCSetBinMin
                0x9d02439c                RTCCSetBinHour
                0x9d024468                RTCCCalculateWeekDay
                0x9d0245f8                RTCCSetBinDay
                0x9d02479c                RTCCSetBinMonth
                0x9d024868                RTCCSetBinYear
 .text          0x9d024984     0x11f0 build/C32_PIC32MX460F512L/production/TouchScreenResistive.o
                0x9d024984                TouchDetectPosition
                0x9d024e84                Touch_ADCInit
                0x9d024ecc                TouchHardwareInit
                0x9d024f30                TouchGetX
                0x9d024f94                TouchGetRawX
                0x9d024fbc                TouchGetY
                0x9d025020                TouchGetRawY
                0x9d025048                TouchStoreCalibration
                0x9d0251b4                TouchLoadCalibration
                0x9d0252b0                TouchCalculateCalPoints
                0x9d025550                TouchCalHWGetPoints
 .text          0x9d025b74     0x1060 build/C32_PIC32MX460F512L/production/SST25VF016.o
                0x9d025b74                SST25Init
                0x9d025bd8                SST25WriteByte
                0x9d025db8                SST25ReadByte
                0x9d025f74                SST25WriteWord
                0x9d025ff0                SST25ReadWord
                0x9d026048                SST25WriteEnable
                0x9d026110                SST25IsWriteBusy
                0x9d026214                SST25WriteArray
                0x9d0263d8                SST25ReadArray
                0x9d0265d8                SST25ChipErase
                0x9d02681c                SST25ResetWriteProtection
                0x9d026a30                SST25SectorErase
 .text          0x9d026bd4      0xef8 build/C32_PIC32MX460F512L/production/graphics/ProgressBar.o
                0x9d026bd4                PbWordToString
                0x9d026d48                PbCreate
                0x9d026ed8                PbSetPos
                0x9d026f34                PbSetRange
                0x9d026f8c                PbTranslateMsg
                0x9d027068                PbDraw
 .text          0x9d027acc      0xce8 build/C32_PIC32MX460F512L/production/graphics/EditBox.o
                0x9d027acc                EbCreate
                0x9d027ca0                EbSetText
                0x9d027d80                EbAddChar
                0x9d027e20                EbDeleteChar
                0x9d027e90                EbTranslateMsg
                0x9d027ff4                EbMsgDefault
                0x9d0280f4                EbDraw
 .text          0x9d0287b4      0xcdc build/C32_PIC32MX460F512L/production/graphics/RadioButton.o
                0x9d0287b4                RbCreate
                0x9d0289d4                RbSetCheck
                0x9d028a94                RbGetCheck
                0x9d028b0c                RbSetText
                0x9d028b6c                RbMsgDefault
                0x9d028c80                RbTranslateMsg
                0x9d028e30                RbDraw
 .text          0x9d029490      0xc1c build/C32_PIC32MX460F512L/production/graphics/GroupBox.o
                0x9d029490                GbCreate
                0x9d02961c                GbSetText
                0x9d0296a4                GbTranslateMsg
                0x9d0297a4                GbDraw
 .text          0x9d02a0ac      0xc00 build/C32_PIC32MX460F512L/production/graphics/CheckBox.o
                0x9d02a0ac                CbCreate
                0x9d02a248                CbSetText
                0x9d02a2a8                CbMsgDefault
                0x9d02a39c                CbTranslateMsg
                0x9d02a564                CbDraw
 .text          0x9d02acac      0xbcc build/C32_PIC32MX460F512L/production/graphics/DigitalMeter.o
                0x9d02ae38                DmCreate
                0x9d02aff8                DmSetValue
                0x9d02b068                DmTranslateMsg
                0x9d02b14c                DmDraw
 .text          0x9d02b878      0xad0 build/C32_PIC32MX460F512L/production/TouchScreen.o
                0x9d02b878                TouchInit
                0x9d02b948                TouchGetMsg
                0x9d02bb30                TouchCheckForCalibration
                0x9d02bbd4                SHORT_TO_XCHAR
                0x9d02bcec                TouchCalibration
 .text          0x9d02c348      0x988 build/C32_PIC32MX460F512L/production/graphics/StaticText.o
                0x9d02c348                StCreate
                0x9d02c4e0                StSetText
                0x9d02c540                StTranslateMsg
                0x9d02c624                StDraw
 .text          0x9d02ccd0      0x984 build/C32_PIC32MX460F512L/production/graphics/Window.o
                0x9d02ccd0                WndCreate
                0x9d02ce6c                WndSetText
                0x9d02cecc                WndTranslateMsg
                0x9d02d040                WndDraw
 .text          0x9d02d654      0x8ec c:/program files (x86)/microchip/xc32/v1.21/bin/../lib/gcc/pic32mx/4.5.2/../../../../pic32mx/lib\libm.a(fp32.o)
                0x9d02d654                fpsub
                0x9d02d654                __subsf3
                0x9d02d65c                __addsf3
                0x9d02d65c                fpadd
                0x9d02d8c8                __mulsf3
                0x9d02d8c8                fpmul
                0x9d02da80                fpdiv
                0x9d02da80                __divsf3
                0x9d02dcac                sitofp
                0x9d02dcac                litofp
                0x9d02dcac                __floatsisf
                0x9d02dd08                ultofp
                0x9d02dd08                uitofp
                0x9d02dd54                fptosi
                0x9d02dd54                fptoli
                0x9d02dd54                __fixsfsi
                0x9d02ddcc                fptoui
                0x9d02ddcc                __fixunssfsi
                0x9d02ddcc                fptoul
                0x9d02de40                __nesf2
                0x9d02de40                fpcmp
                0x9d02de40                __eqsf2
                0x9d02de40                __gesf2
                0x9d02de40                __ltsf2
                0x9d02de40                __gtsf2
                0x9d02de40                __lesf2
                0x9d02ded4                fpfabs
                0x9d02ded4                fabsf
                0x9d02dee4                __negsf2
                0x9d02def4                fpnan
                0x9d02def4                nanf
 .text          0x9d02df40      0x7f0 build/C32_PIC32MX460F512L/production/graphics/Picture.o
                0x9d02df40                PictCreate
                0x9d02e0b4                PictTranslateMsg
                0x9d02e198                PictDraw
 .text          0x9d02e730      0x768 build/C32_PIC32MX460F512L/production/CustomControlDemo.o
                0x9d02e730                CcCreate
                0x9d02e8cc                CcTranslateMsg
                0x9d02e9c0                CcMsgDefault
                0x9d02ea24                CcDraw

.dinit          0x9d02ee98      0x580
 .dinit         0x9d02ee98      0x580 data_init

.rodata         0x9d02f418      0x528
 .rodata        0x9d02f418      0x528 c:/program files (x86)/microchip/xc32/v1.21/bin/../lib/gcc/pic32mx/4.5.2/../../../../pic32mx/lib\libmchp_peripheral_32MX460F512L.a(int_tbl_lib.o)
                0x9d02f418                __IntSrcTbl
                0x9d02f718                __IntVectorTbl

.text           0x9d02f940      0x580
 .text          0x9d02f940      0x2e0 build/C32_PIC32MX460F512L/production/drv_spi.o
                0x9d02f940                DRV_SPI_Initialize
                0x9d02fa9c                SPIPut
                0x9d02fb18                SPIGet
                0x9d02fb6c                SPILock
                0x9d02fbe0                SPIUnLock
 .text          0x9d02fc20      0x2a0 c:/program files (x86)/microchip/xc32/v1.21/bin/../lib/gcc/pic32mx/4.5.2/../../../../pic32mx/lib\libm.a(fpsqrt32.o)
                0x9d02fc20                fpexsqrt
                0x9d02fd18                fpsqrt
                0x9d02fd18                __mchp_sqrtf

.text.malloc    0x9d02fec0      0x258
 .text.malloc   0x9d02fec0      0x258 c:/program files (x86)/microchip/xc32/v1.21/bin/../lib/gcc/pic32mx/4.5.2/../../../../pic32mx/lib\libc.a(malloc.o)
                0x9d02fec0                malloc

.text._RtccSetTimeAndDate
                0x9d030118      0x23c
 .text._RtccSetTimeAndDate
                0x9d030118      0x23c c:/program files (x86)/microchip/xc32/v1.21/bin/../lib/gcc/pic32mx/4.5.2/../../../../pic32mx/lib\libmchp_peripheral_32MX460F512L.a(_rtcc_set_time_and_date_lib.o)
                0x9d030118                _RtccSetTimeAndDate

.text.RtccInit  0x9d030354      0x1ac
 .text.RtccInit
                0x9d030354      0x1ac c:/program files (x86)/microchip/xc32/v1.21/bin/../lib/gcc/pic32mx/4.5.2/../../../../pic32mx/lib\libmchp_peripheral_32MX460F512L.a(rtcc_init_lib.o)
                0x9d030354                RtccInit

.rodata         0x9d030500      0x1a0
 .rodata        0x9d030500      0x1a0 build/C32_PIC32MX460F512L/production/MainDemo.o
                0x9d030500                ecgPoints
                0x9d0305c0                SPI_Init_Data
                0x9d0305d0                MonthItems
                0x9d030600                DayItems
                0x9d030660                YearItems

.text._sbrk_init
                0x9d0306a0      0x194
 .text._sbrk_init
                0x9d0306a0      0x194 c:/program files (x86)/microchip/xc32/v1.21/bin/../lib/gcc/pic32mx/4.5.2/../../../../pic32mx/lib\libpic32.a(sbrk.o)
                0x9d0306a0                _sbrk_init

.text           0x9d030834      0x168
 .text          0x9d030834      0x168 c:/program files (x86)/microchip/xc32/v1.21/bin/../lib/gcc/pic32mx/4.5.2/../../../../pic32mx/lib\libpic32.a(memcpy.o)
                0x9d030834                memcpy

.text.realloc   0x9d03099c      0x134
 .text.realloc  0x9d03099c      0x134 c:/program files (x86)/microchip/xc32/v1.21/bin/../lib/gcc/pic32mx/4.5.2/../../../../pic32mx/lib\libc.a(malloc.o)
                0x9d03099c                realloc

.text           0x9d030ad0      0x22c
 .text          0x9d030ad0      0x118 c:/program files (x86)/microchip/xc32/v1.21/bin/../lib/gcc/pic32mx/4.5.2/../../../../pic32mx/lib\libm.a(fpsin32.o)
                0x9d030ad0                sinf
                0x9d030ad0                fpsin
 .text          0x9d030be8      0x114 c:/program files (x86)/microchip/xc32/v1.21/bin/../lib/gcc/pic32mx/4.5.2/../../../../pic32mx/lib\libm.a(fpcos32.o)
                0x9d030be8                cosf
                0x9d030be8                fpcos

.text._RtccWaitClockOff
                0x9d030cfc      0x108
 .text._RtccWaitClockOff
                0x9d030cfc      0x108 c:/program files (x86)/microchip/xc32/v1.21/bin/../lib/gcc/pic32mx/4.5.2/../../../../pic32mx/lib\libmchp_peripheral_32MX460F512L.a(_rtcc_wait_clock_off_lib.o)
                0x9d030cfc                _RtccWaitClockOff

.text           0x9d030e04      0x20c
 .text          0x9d030e04      0x108 c:/program files (x86)/microchip/xc32/v1.21/bin/../lib/gcc/pic32mx/4.5.2/../../../../pic32mx/lib\libm.a(fpreduct32.o)
                0x9d030e04                fpreduct
 .text          0x9d030f0c      0x104 build/C32_PIC32MX460F512L/production/TimeDelay.o
                0x9d030f0c                Delay10us
                0x9d030f78                DelayMs

.text.general_exception
                0x9d031010       0xd0
 .text.general_exception
                0x9d031010       0xd0 c:/program files (x86)/microchip/xc32/v1.21/bin/../lib/gcc/pic32mx/4.5.2/../../../../pic32mx/lib\libpic32.a(general-exception.o)
                0x9d031010                _general_exception_context

.rodata         0x9d0310e0       0xc4
 .rodata        0x9d0310e0       0xc4 build/C32_PIC32MX460F512L/production/TouchScreen.o
                0x9d0310e0                XBUF

.text._sbrk     0x9d0311a4       0xc4
 .text._sbrk    0x9d0311a4       0xc4 c:/program files (x86)/microchip/xc32/v1.21/bin/../lib/gcc/pic32mx/4.5.2/../../../../pic32mx/lib\libpic32.a(sbrk.o)
                0x9d0311a4                _sbrk

.rodata         0x9d031268       0xb6
 .rodata        0x9d031268       0xb6 build/C32_PIC32MX460F512L/production/graphics/Primitive.o
                0x9d031268                _CosineTable

.text           0x9d031320       0xa8
 .text          0x9d031320       0xa8 c:/program files (x86)/microchip/xc32/v1.21/bin/../lib/gcc/pic32mx/4.5.2/../../../../pic32mx/lib\libpic32.a(memset.o)
                0x9d031320                memset

.text.INTEnable
                0x9d0313c8       0x50
 .text.INTEnable
                0x9d0313c8       0x50 c:/program files (x86)/microchip/xc32/v1.21/bin/../lib/gcc/pic32mx/4.5.2/../../../../pic32mx/lib\libmchp_peripheral_32MX460F512L.a(int_tbl_lib.o)
                0x9d0313c8                INTEnable

.text.sqrtf     0x9d031418       0x50
 .text.sqrtf    0x9d031418       0x50 c:/program files (x86)/microchip/xc32/v1.21/bin/../lib/gcc/pic32mx/4.5.2/../../../../pic32mx/lib\libm.a(w_sqrtf.o)
                0x9d031418                sqrtf

.text.sbrk      0x9d031468       0x50
 .text.sbrk     0x9d031468       0x50 c:/program files (x86)/microchip/xc32/v1.21/bin/../lib/gcc/pic32mx/4.5.2/../../../../pic32mx/lib\libpic32.a(sbrk.o)
                0x9d031468                sbrk

.text           0x9d0314b8       0x48
 .text          0x9d0314b8       0x48 build/C32_PIC32MX460F512L/production/exceptions.o
                0x9d0314b8                _general_exception_handler

.text._DefaultInterrupt
                0x9d031500       0x48
 .text._DefaultInterrupt
                0x9d031500       0x48 c:/program files (x86)/microchip/xc32/v1.21/bin/../lib/gcc/pic32mx/4.5.2/../../../../pic32mx/lib\libpic32.a(defaultinterrupt.o)
                0x9d031500                _DefaultInterrupt

.text           0x9d031548       0x38
 .text          0x9d031548       0x38 c:/program files (x86)/microchip/xc32/v1.21/bin/../lib/gcc/pic32mx/4.5.2/../../../../pic32mx/lib/crt0.o
                0x9d031574                __crt0_exit

.text.INTSetVectorPriority
                0x9d031580       0x38
 .text.INTSetVectorPriority
                0x9d031580       0x38 c:/program files (x86)/microchip/xc32/v1.21/bin/../lib/gcc/pic32mx/4.5.2/../../../../pic32mx/lib\libmchp_peripheral_32MX460F512L.a(int_tbl_lib.o)
                0x9d031580                INTSetVectorPriority

.text.INTSetVectorSubPriority
                0x9d0315b8       0x38
 .text.INTSetVectorSubPriority
                0x9d0315b8       0x38 c:/program files (x86)/microchip/xc32/v1.21/bin/../lib/gcc/pic32mx/4.5.2/../../../../pic32mx/lib\libmchp_peripheral_32MX460F512L.a(int_tbl_lib.o)
                0x9d0315b8                INTSetVectorSubPriority

.rodata         0x9d0315f0       0x34
 .rodata        0x9d0315f0       0x34 build/C32_PIC32MX460F512L/production/TouchScreenResistive.o
                0x9d0315f0                mchpTouchScreenVersion

.text.INTEnableSystemMultiVectoredInt
                0x9d031624       0x34
 .text.INTEnableSystemMultiVectoredInt
                0x9d031624       0x34 c:/program files (x86)/microchip/xc32/v1.21/bin/../lib/gcc/pic32mx/4.5.2/../../../../pic32mx/lib\libmchp_peripheral_32MX460F512L.a(int_enable_mv_int_lib.o)
                0x9d031624                INTEnableSystemMultiVectoredInt

.text.INTGetVectorPriority
                0x9d031658       0x2c
 .text.INTGetVectorPriority
                0x9d031658       0x2c c:/program files (x86)/microchip/xc32/v1.21/bin/../lib/gcc/pic32mx/4.5.2/../../../../pic32mx/lib\libmchp_peripheral_32MX460F512L.a(int_tbl_lib.o)
                0x9d031658                INTGetVectorPriority

.text.INTGetVectorSubPriority
                0x9d031684       0x2c
 .text.INTGetVectorSubPriority
                0x9d031684       0x2c c:/program files (x86)/microchip/xc32/v1.21/bin/../lib/gcc/pic32mx/4.5.2/../../../../pic32mx/lib\libmchp_peripheral_32MX460F512L.a(int_tbl_lib.o)
                0x9d031684                INTGetVectorSubPriority

.text._stub_sbd_memlayout
                0x9d0316b0       0x2c
 .text._stub_sbd_memlayout
                0x9d0316b0       0x2c c:/program files (x86)/microchip/xc32/v1.21/bin/../lib/gcc/pic32mx/4.5.2/../../../../pic32mx/lib\libpic32.a(sbrk.o)
                0x9d0316b0                _sbd_memlayout
                0x9d0316b0                _stub_sbd_memlayout

.text.INTClearFlag
                0x9d0316dc       0x28
 .text.INTClearFlag
                0x9d0316dc       0x28 c:/program files (x86)/microchip/xc32/v1.21/bin/../lib/gcc/pic32mx/4.5.2/../../../../pic32mx/lib\libmchp_peripheral_32MX460F512L.a(int_tbl_lib.o)
                0x9d0316dc                INTClearFlag

.text.INTSetFlag
                0x9d031704       0x28
 .text.INTSetFlag
                0x9d031704       0x28 c:/program files (x86)/microchip/xc32/v1.21/bin/../lib/gcc/pic32mx/4.5.2/../../../../pic32mx/lib\libmchp_peripheral_32MX460F512L.a(int_tbl_lib.o)
                0x9d031704                INTSetFlag

.text.INTGetFlag
                0x9d03172c       0x28
 .text.INTGetFlag
                0x9d03172c       0x28 c:/program files (x86)/microchip/xc32/v1.21/bin/../lib/gcc/pic32mx/4.5.2/../../../../pic32mx/lib\libmchp_peripheral_32MX460F512L.a(int_tbl_lib.o)
                0x9d03172c                INTGetFlag

.text.INTGetEnable
                0x9d031754       0x28
 .text.INTGetEnable
                0x9d031754       0x28 c:/program files (x86)/microchip/xc32/v1.21/bin/../lib/gcc/pic32mx/4.5.2/../../../../pic32mx/lib\libmchp_peripheral_32MX460F512L.a(int_tbl_lib.o)
                0x9d031754                INTGetEnable

.text.RtccSetDate
                0x9d03177c       0x24
 .text.RtccSetDate
                0x9d03177c       0x24 c:/program files (x86)/microchip/xc32/v1.21/bin/../lib/gcc/pic32mx/4.5.2/../../../../pic32mx/lib\libmchp_peripheral_32MX460F512L.a(rtcc_set_date_lib.o)
                0x9d03177c                RtccSetDate

.text.RtccSetTime
                0x9d0317a0       0x24
 .text.RtccSetTime
                0x9d0317a0       0x24 c:/program files (x86)/microchip/xc32/v1.21/bin/../lib/gcc/pic32mx/4.5.2/../../../../pic32mx/lib\libmchp_peripheral_32MX460F512L.a(rtcc_set_time_lib.o)
                0x9d0317a0                RtccSetTime

.text           0x9d0317c4       0x20
 .text          0x9d0317c4       0x20 build/C32_PIC32MX460F512L/production/user.o
                0x9d0317c4                InitApp

.text.INTRestoreInterrupts
                0x9d0317e4       0x1c
 .text.INTRestoreInterrupts
                0x9d0317e4       0x1c c:/program files (x86)/microchip/xc32/v1.21/bin/../lib/gcc/pic32mx/4.5.2/../../../../pic32mx/lib\libmchp_peripheral_32MX460F512L.a(int_restore_interrupts_lib.o)
                0x9d0317e4                INTRestoreInterrupts

.text.free      0x9d031800       0x1c
 .text.free     0x9d031800       0x1c c:/program files (x86)/microchip/xc32/v1.21/bin/../lib/gcc/pic32mx/4.5.2/../../../../pic32mx/lib\libc.a(malloc.o)
                0x9d031800                free

.rodata         0x9d03181c       0x30
 .rodata        0x9d03181c       0x18 build/C32_PIC32MX460F512L/production/graphics/GOLSchemeDefault.o
                0x9d03181c                GOLSchemeDefault
 .rodata        0x9d031834       0x18 build/C32_PIC32MX460F512L/production/rtcc.o

.text.CheKseg0CacheOff
                0x9d03184c       0x18
 .text.CheKseg0CacheOff
                0x9d03184c       0x18 c:/program files (x86)/microchip/xc32/v1.21/bin/../lib/gcc/pic32mx/4.5.2/../../../../pic32mx/lib\libmchp_peripheral_32MX460F512L.a(pcache.o)
                0x9d03184c                CheKseg0CacheOff

.text.CheKseg0CacheOn
                0x9d031864       0x18
 .text.CheKseg0CacheOn
                0x9d031864       0x18 c:/program files (x86)/microchip/xc32/v1.21/bin/../lib/gcc/pic32mx/4.5.2/../../../../pic32mx/lib\libmchp_peripheral_32MX460F512L.a(pcache.o)
                0x9d031864                CheKseg0CacheOn

.text           0x9d03187c       0x18
 .text          0x9d03187c       0x18 c:/program files (x86)/microchip/xc32/v1.21/bin/../lib/gcc/pic32mx/4.5.2/../../../../pic32mx/lib\libpic32.a(default-nmi-handler.o)
                0x9d03187c                _nmi_handler

.text._RtccSetClockWait
                0x9d031894       0x14
 .text._RtccSetClockWait
                0x9d031894       0x14 c:/program files (x86)/microchip/xc32/v1.21/bin/../lib/gcc/pic32mx/4.5.2/../../../../pic32mx/lib\libmchp_peripheral_32MX460F512L.a(_rtcc_wait_clock_off_lib.o)
                0x9d031894                _RtccSetClockWait

.text._bootstrap_exception_handler
                0x9d0318a8        0xc
 .text._bootstrap_exception_handler
                0x9d0318a8        0xc c:/program files (x86)/microchip/xc32/v1.21/bin/../lib/gcc/pic32mx/4.5.2/../../../../pic32mx/lib\libpic32.a(default-bootstrap-exception-handler.o)
                0x9d0318a8                _bootstrap_exception_handler

.rodata         0x9d0318b4        0x8
 .rodata        0x9d0318b4        0x8 build/C32_PIC32MX460F512L/production/graphics/Meter.o

.text.INTDisableInterrupts
                0x9d0318bc        0x8
 .text.INTDisableInterrupts
                0x9d0318bc        0x8 c:/program files (x86)/microchip/xc32/v1.21/bin/../lib/gcc/pic32mx/4.5.2/../../../../pic32mx/lib\libmchp_peripheral_32MX460F512L.a(int_disable_interrupts_lib.o)
                0x9d0318bc                INTDisableInterrupts

.text.INTEnableInterrupts
                0x9d0318c4        0x8
 .text.INTEnableInterrupts
                0x9d0318c4        0x8 c:/program files (x86)/microchip/xc32/v1.21/bin/../lib/gcc/pic32mx/4.5.2/../../../../pic32mx/lib\libmchp_peripheral_32MX460F512L.a(int_enable_interrupts_lib.o)
                0x9d0318c4                INTEnableInterrupts

.text.ReadCoreTimer
                0x9d0318cc        0x8
 .text.ReadCoreTimer
                0x9d0318cc        0x8 c:/program files (x86)/microchip/xc32/v1.21/bin/../lib/gcc/pic32mx/4.5.2/../../../../pic32mx/lib\libmchp_peripheral_32MX460F512L.a(read_core_timer_lib.o)
                0x9d0318cc                ReadCoreTimer

.text._on_reset
                0x9d0318d4        0x8
 .text._on_reset
                0x9d0318d4        0x8 c:/program files (x86)/microchip/xc32/v1.21/bin/../lib/gcc/pic32mx/4.5.2/../../../../pic32mx/lib\libpic32.a(default-on-reset.o)
                0x9d0318d4                _on_reset

.text._on_bootstrap
                0x9d0318dc        0x8
 .text._on_bootstrap
                0x9d0318dc        0x8 c:/program files (x86)/microchip/xc32/v1.21/bin/../lib/gcc/pic32mx/4.5.2/../../../../pic32mx/lib\libpic32.a(default-on-bootstrap.o)
                0x9d0318dc                _on_bootstrap

.text.getpagesize
                0x9d0318e4        0x8
 .text.getpagesize
                0x9d0318e4        0x8 c:/program files (x86)/microchip/xc32/v1.21/bin/../lib/gcc/pic32mx/4.5.2/../../../../pic32mx/lib\libpic32.a(sbrk.o)
                0x9d0318e4                getpagesize

.text%z268      0x00000000        0x0
 .text          0x00000000        0x0 c:/program files (x86)/microchip/xc32/v1.21/bin/../lib/gcc/pic32mx/4.5.2/../../../../pic32mx/lib\libpic32.a(sbrk.o)

.text%z269      0x00000000        0x0
 .text          0x00000000        0x0 c:/program files (x86)/microchip/xc32/v1.21/bin/../lib/gcc/pic32mx/4.5.2/../../../../pic32mx/lib\libc.a(malloc.o)

.text%z270      0x00000000        0x0
 .text          0x00000000        0x0 c:/program files (x86)/microchip/xc32/v1.21/bin/../lib/gcc/pic32mx/4.5.2/../../../../pic32mx/lib\libpic32.a(errno.o)

.text%z271      0x00000000        0x0
 .text          0x00000000        0x0 c:/program files (x86)/microchip/xc32/v1.21/bin/../lib/gcc/pic32mx/4.5.2/../../../../pic32mx/lib\libm.a(s_lib_ver.o)

.text%z272      0x00000000        0x0
 .text          0x00000000        0x0 c:/program files (x86)/microchip/xc32/v1.21/bin/../lib/gcc/pic32mx/4.5.2/../../../../pic32mx/lib\libm.a(sincof32.o)

.text%z273      0x00000000        0x0
 .text          0x00000000        0x0 c:/program files (x86)/microchip/xc32/v1.21/bin/../lib/gcc/pic32mx/4.5.2/../../../../pic32mx/lib\libm.a(w_sqrtf.o)

.text%z274      0x00000000        0x0
 .text          0x00000000        0x0 c:/program files (x86)/microchip/xc32/v1.21/bin/../lib/gcc/pic32mx/4.5.2/../../../../pic32mx/lib\libpic32.a(defaultinterrupt.o)

.text%z275      0x00000000        0x0
 .text          0x00000000        0x0 c:/program files (x86)/microchip/xc32/v1.21/bin/../lib/gcc/pic32mx/4.5.2/../../../../pic32mx/lib\libpic32.a(vector63.o)

.text%z276      0x00000000        0x0
 .text          0x00000000        0x0 c:/program files (x86)/microchip/xc32/v1.21/bin/../lib/gcc/pic32mx/4.5.2/../../../../pic32mx/lib\libpic32.a(vector62.o)

.text%z277      0x00000000        0x0
 .text          0x00000000        0x0 c:/program files (x86)/microchip/xc32/v1.21/bin/../lib/gcc/pic32mx/4.5.2/../../../../pic32mx/lib\libpic32.a(vector61.o)

.text%z278      0x00000000        0x0
 .text          0x00000000        0x0 c:/program files (x86)/microchip/xc32/v1.21/bin/../lib/gcc/pic32mx/4.5.2/../../../../pic32mx/lib\libpic32.a(vector60.o)

.text%z279      0x00000000        0x0
 .text          0x00000000        0x0 c:/program files (x86)/microchip/xc32/v1.21/bin/../lib/gcc/pic32mx/4.5.2/../../../../pic32mx/lib\libpic32.a(vector59.o)

.text%z280      0x00000000        0x0
 .text          0x00000000        0x0 c:/program files (x86)/microchip/xc32/v1.21/bin/../lib/gcc/pic32mx/4.5.2/../../../../pic32mx/lib\libpic32.a(vector58.o)

.text%z281      0x00000000        0x0
 .text          0x00000000        0x0 c:/program files (x86)/microchip/xc32/v1.21/bin/../lib/gcc/pic32mx/4.5.2/../../../../pic32mx/lib\libpic32.a(vector57.o)

.text%z282      0x00000000        0x0
 .text          0x00000000        0x0 c:/program files (x86)/microchip/xc32/v1.21/bin/../lib/gcc/pic32mx/4.5.2/../../../../pic32mx/lib\libpic32.a(vector56.o)

.text%z283      0x00000000        0x0
 .text          0x00000000        0x0 c:/program files (x86)/microchip/xc32/v1.21/bin/../lib/gcc/pic32mx/4.5.2/../../../../pic32mx/lib\libpic32.a(vector55.o)

.text%z284      0x00000000        0x0
 .text          0x00000000        0x0 c:/program files (x86)/microchip/xc32/v1.21/bin/../lib/gcc/pic32mx/4.5.2/../../../../pic32mx/lib\libpic32.a(vector54.o)

.text%z285      0x00000000        0x0
 .text          0x00000000        0x0 c:/program files (x86)/microchip/xc32/v1.21/bin/../lib/gcc/pic32mx/4.5.2/../../../../pic32mx/lib\libpic32.a(vector53.o)

.text%z286      0x00000000        0x0
 .text          0x00000000        0x0 c:/program files (x86)/microchip/xc32/v1.21/bin/../lib/gcc/pic32mx/4.5.2/../../../../pic32mx/lib\libpic32.a(vector52.o)

.text%z287      0x00000000        0x0
 .text          0x00000000        0x0 c:/program files (x86)/microchip/xc32/v1.21/bin/../lib/gcc/pic32mx/4.5.2/../../../../pic32mx/lib\libpic32.a(vector51.o)

.text%z288      0x00000000        0x0
 .text          0x00000000        0x0 c:/program files (x86)/microchip/xc32/v1.21/bin/../lib/gcc/pic32mx/4.5.2/../../../../pic32mx/lib\libpic32.a(vector50.o)

.text%z289      0x00000000        0x0
 .text          0x00000000        0x0 c:/program files (x86)/microchip/xc32/v1.21/bin/../lib/gcc/pic32mx/4.5.2/../../../../pic32mx/lib\libpic32.a(vector49.o)

.text%z290      0x00000000        0x0
 .text          0x00000000        0x0 c:/program files (x86)/microchip/xc32/v1.21/bin/../lib/gcc/pic32mx/4.5.2/../../../../pic32mx/lib\libpic32.a(vector48.o)

.text%z291      0x00000000        0x0
 .text          0x00000000        0x0 c:/program files (x86)/microchip/xc32/v1.21/bin/../lib/gcc/pic32mx/4.5.2/../../../../pic32mx/lib\libpic32.a(vector47.o)

.text%z292      0x00000000        0x0
 .text          0x00000000        0x0 c:/program files (x86)/microchip/xc32/v1.21/bin/../lib/gcc/pic32mx/4.5.2/../../../../pic32mx/lib\libpic32.a(vector46.o)

.text%z293      0x00000000        0x0
 .text          0x00000000        0x0 c:/program files (x86)/microchip/xc32/v1.21/bin/../lib/gcc/pic32mx/4.5.2/../../../../pic32mx/lib\libpic32.a(vector45.o)

.text%z294      0x00000000        0x0
 .text          0x00000000        0x0 c:/program files (x86)/microchip/xc32/v1.21/bin/../lib/gcc/pic32mx/4.5.2/../../../../pic32mx/lib\libpic32.a(vector44.o)

.text%z295      0x00000000        0x0
 .text          0x00000000        0x0 c:/program files (x86)/microchip/xc32/v1.21/bin/../lib/gcc/pic32mx/4.5.2/../../../../pic32mx/lib\libpic32.a(vector43.o)

.text%z296      0x00000000        0x0
 .text          0x00000000        0x0 c:/program files (x86)/microchip/xc32/v1.21/bin/../lib/gcc/pic32mx/4.5.2/../../../../pic32mx/lib\libpic32.a(vector42.o)

.text%z297      0x00000000        0x0
 .text          0x00000000        0x0 c:/program files (x86)/microchip/xc32/v1.21/bin/../lib/gcc/pic32mx/4.5.2/../../../../pic32mx/lib\libpic32.a(vector41.o)

.text%z298      0x00000000        0x0
 .text          0x00000000        0x0 c:/program files (x86)/microchip/xc32/v1.21/bin/../lib/gcc/pic32mx/4.5.2/../../../../pic32mx/lib\libpic32.a(vector40.o)

.text%z299      0x00000000        0x0
 .text          0x00000000        0x0 c:/program files (x86)/microchip/xc32/v1.21/bin/../lib/gcc/pic32mx/4.5.2/../../../../pic32mx/lib\libpic32.a(vector39.o)

.text%z300      0x00000000        0x0
 .text          0x00000000        0x0 c:/program files (x86)/microchip/xc32/v1.21/bin/../lib/gcc/pic32mx/4.5.2/../../../../pic32mx/lib\libpic32.a(vector38.o)

.text%z301      0x00000000        0x0
 .text          0x00000000        0x0 c:/program files (x86)/microchip/xc32/v1.21/bin/../lib/gcc/pic32mx/4.5.2/../../../../pic32mx/lib\libpic32.a(vector37.o)

.text%z302      0x00000000        0x0
 .text          0x00000000        0x0 c:/program files (x86)/microchip/xc32/v1.21/bin/../lib/gcc/pic32mx/4.5.2/../../../../pic32mx/lib\libpic32.a(vector36.o)

.text%z303      0x00000000        0x0
 .text          0x00000000        0x0 c:/program files (x86)/microchip/xc32/v1.21/bin/../lib/gcc/pic32mx/4.5.2/../../../../pic32mx/lib\libpic32.a(vector35.o)

.text%z304      0x00000000        0x0
 .text          0x00000000        0x0 c:/program files (x86)/microchip/xc32/v1.21/bin/../lib/gcc/pic32mx/4.5.2/../../../../pic32mx/lib\libpic32.a(vector34.o)

.text%z305      0x00000000        0x0
 .text          0x00000000        0x0 c:/program files (x86)/microchip/xc32/v1.21/bin/../lib/gcc/pic32mx/4.5.2/../../../../pic32mx/lib\libpic32.a(vector33.o)

.text%z306      0x00000000        0x0
 .text          0x00000000        0x0 c:/program files (x86)/microchip/xc32/v1.21/bin/../lib/gcc/pic32mx/4.5.2/../../../../pic32mx/lib\libpic32.a(vector32.o)

.text%z307      0x00000000        0x0
 .text          0x00000000        0x0 c:/program files (x86)/microchip/xc32/v1.21/bin/../lib/gcc/pic32mx/4.5.2/../../../../pic32mx/lib\libpic32.a(vector31.o)

.text%z308      0x00000000        0x0
 .text          0x00000000        0x0 c:/program files (x86)/microchip/xc32/v1.21/bin/../lib/gcc/pic32mx/4.5.2/../../../../pic32mx/lib\libpic32.a(vector30.o)

.text%z309      0x00000000        0x0
 .text          0x00000000        0x0 c:/program files (x86)/microchip/xc32/v1.21/bin/../lib/gcc/pic32mx/4.5.2/../../../../pic32mx/lib\libpic32.a(vector29.o)

.text%z310      0x00000000        0x0
 .text          0x00000000        0x0 c:/program files (x86)/microchip/xc32/v1.21/bin/../lib/gcc/pic32mx/4.5.2/../../../../pic32mx/lib\libpic32.a(vector28.o)

.text%z311      0x00000000        0x0
 .text          0x00000000        0x0 c:/program files (x86)/microchip/xc32/v1.21/bin/../lib/gcc/pic32mx/4.5.2/../../../../pic32mx/lib\libpic32.a(vector27.o)

.text%z312      0x00000000        0x0
 .text          0x00000000        0x0 c:/program files (x86)/microchip/xc32/v1.21/bin/../lib/gcc/pic32mx/4.5.2/../../../../pic32mx/lib\libpic32.a(vector26.o)

.text%z313      0x00000000        0x0
 .text          0x00000000        0x0 c:/program files (x86)/microchip/xc32/v1.21/bin/../lib/gcc/pic32mx/4.5.2/../../../../pic32mx/lib\libpic32.a(vector25.o)

.text%z314      0x00000000        0x0
 .text          0x00000000        0x0 c:/program files (x86)/microchip/xc32/v1.21/bin/../lib/gcc/pic32mx/4.5.2/../../../../pic32mx/lib\libpic32.a(vector24.o)

.text%z315      0x00000000        0x0
 .text          0x00000000        0x0 c:/program files (x86)/microchip/xc32/v1.21/bin/../lib/gcc/pic32mx/4.5.2/../../../../pic32mx/lib\libpic32.a(vector23.o)

.text%z316      0x00000000        0x0
 .text          0x00000000        0x0 c:/program files (x86)/microchip/xc32/v1.21/bin/../lib/gcc/pic32mx/4.5.2/../../../../pic32mx/lib\libpic32.a(vector22.o)

.text%z317      0x00000000        0x0
 .text          0x00000000        0x0 c:/program files (x86)/microchip/xc32/v1.21/bin/../lib/gcc/pic32mx/4.5.2/../../../../pic32mx/lib\libpic32.a(vector21.o)

.text%z318      0x00000000        0x0
 .text          0x00000000        0x0 c:/program files (x86)/microchip/xc32/v1.21/bin/../lib/gcc/pic32mx/4.5.2/../../../../pic32mx/lib\libpic32.a(vector20.o)

.text%z319      0x00000000        0x0
 .text          0x00000000        0x0 c:/program files (x86)/microchip/xc32/v1.21/bin/../lib/gcc/pic32mx/4.5.2/../../../../pic32mx/lib\libpic32.a(vector19.o)

.text%z320      0x00000000        0x0
 .text          0x00000000        0x0 c:/program files (x86)/microchip/xc32/v1.21/bin/../lib/gcc/pic32mx/4.5.2/../../../../pic32mx/lib\libpic32.a(vector18.o)

.text%z321      0x00000000        0x0
 .text          0x00000000        0x0 c:/program files (x86)/microchip/xc32/v1.21/bin/../lib/gcc/pic32mx/4.5.2/../../../../pic32mx/lib\libpic32.a(vector17.o)

.text%z322      0x00000000        0x0
 .text          0x00000000        0x0 c:/program files (x86)/microchip/xc32/v1.21/bin/../lib/gcc/pic32mx/4.5.2/../../../../pic32mx/lib\libpic32.a(vector15.o)

.text%z323      0x00000000        0x0
 .text          0x00000000        0x0 c:/program files (x86)/microchip/xc32/v1.21/bin/../lib/gcc/pic32mx/4.5.2/../../../../pic32mx/lib\libpic32.a(vector14.o)

.text%z324      0x00000000        0x0
 .text          0x00000000        0x0 c:/program files (x86)/microchip/xc32/v1.21/bin/../lib/gcc/pic32mx/4.5.2/../../../../pic32mx/lib\libpic32.a(vector13.o)

.text%z325      0x00000000        0x0
 .text          0x00000000        0x0 c:/program files (x86)/microchip/xc32/v1.21/bin/../lib/gcc/pic32mx/4.5.2/../../../../pic32mx/lib\libpic32.a(vector12.o)

.text%z326      0x00000000        0x0
 .text          0x00000000        0x0 c:/program files (x86)/microchip/xc32/v1.21/bin/../lib/gcc/pic32mx/4.5.2/../../../../pic32mx/lib\libpic32.a(vector11.o)

.text%z327      0x00000000        0x0
 .text          0x00000000        0x0 c:/program files (x86)/microchip/xc32/v1.21/bin/../lib/gcc/pic32mx/4.5.2/../../../../pic32mx/lib\libpic32.a(vector10.o)

.text%z328      0x00000000        0x0
 .text          0x00000000        0x0 c:/program files (x86)/microchip/xc32/v1.21/bin/../lib/gcc/pic32mx/4.5.2/../../../../pic32mx/lib\libpic32.a(vector9.o)

.text%z329      0x00000000        0x0
 .text          0x00000000        0x0 c:/program files (x86)/microchip/xc32/v1.21/bin/../lib/gcc/pic32mx/4.5.2/../../../../pic32mx/lib\libpic32.a(vector8.o)

.text%z330      0x00000000        0x0
 .text          0x00000000        0x0 c:/program files (x86)/microchip/xc32/v1.21/bin/../lib/gcc/pic32mx/4.5.2/../../../../pic32mx/lib\libpic32.a(vector7.o)

.text%z331      0x00000000        0x0
 .text          0x00000000        0x0 c:/program files (x86)/microchip/xc32/v1.21/bin/../lib/gcc/pic32mx/4.5.2/../../../../pic32mx/lib\libpic32.a(vector6.o)

.text%z332      0x00000000        0x0
 .text          0x00000000        0x0 c:/program files (x86)/microchip/xc32/v1.21/bin/../lib/gcc/pic32mx/4.5.2/../../../../pic32mx/lib\libpic32.a(vector5.o)

.text%z333      0x00000000        0x0
 .text          0x00000000        0x0 c:/program files (x86)/microchip/xc32/v1.21/bin/../lib/gcc/pic32mx/4.5.2/../../../../pic32mx/lib\libpic32.a(vector4.o)

.text%z334      0x00000000        0x0
 .text          0x00000000        0x0 c:/program files (x86)/microchip/xc32/v1.21/bin/../lib/gcc/pic32mx/4.5.2/../../../../pic32mx/lib\libpic32.a(vector3.o)

.text%z335      0x00000000        0x0
 .text          0x00000000        0x0 c:/program files (x86)/microchip/xc32/v1.21/bin/../lib/gcc/pic32mx/4.5.2/../../../../pic32mx/lib\libpic32.a(vector2.o)

.text%z336      0x00000000        0x0
 .text          0x00000000        0x0 c:/program files (x86)/microchip/xc32/v1.21/bin/../lib/gcc/pic32mx/4.5.2/../../../../pic32mx/lib\libpic32.a(vector1.o)

.text%z337      0x00000000        0x0
 .text          0x00000000        0x0 c:/program files (x86)/microchip/xc32/v1.21/bin/../lib/gcc/pic32mx/4.5.2/../../../../pic32mx/lib\libpic32.a(vector0.o)

.text%z338      0x00000000        0x0
 .text          0x00000000        0x0 c:/program files (x86)/microchip/xc32/v1.21/bin/../lib/gcc/pic32mx/4.5.2/../../../../pic32mx/lib\libpic32.a(general-exception.o)

.text%z339      0x00000000        0x0
 .text          0x00000000        0x0 c:/program files (x86)/microchip/xc32/v1.21/bin/../lib/gcc/pic32mx/4.5.2/../../../../pic32mx/lib\libpic32.a(default-on-bootstrap.o)

.text%z340      0x00000000        0x0
 .text          0x00000000        0x0 c:/program files (x86)/microchip/xc32/v1.21/bin/../lib/gcc/pic32mx/4.5.2/../../../../pic32mx/lib\libpic32.a(default-on-reset.o)

.text%z341      0x00000000        0x0
 .text          0x00000000        0x0 c:/program files (x86)/microchip/xc32/v1.21/bin/../lib/gcc/pic32mx/4.5.2/../../../../pic32mx/lib\libpic32.a(default-bootstrap-exception-handler.o)

.text%z342      0x00000000        0x0
 .text          0x00000000        0x0 c:/program files (x86)/microchip/xc32/v1.21/bin/../lib/gcc/pic32mx/4.5.2/../../../../pic32mx/lib\libmchp_peripheral_32MX460F512L.a(read_core_timer_lib.o)

.text%z343      0x00000000        0x0
 .text          0x00000000        0x0 c:/program files (x86)/microchip/xc32/v1.21/bin/../lib/gcc/pic32mx/4.5.2/../../../../pic32mx/lib\libmchp_peripheral_32MX460F512L.a(_rtcc_wait_clock_off_lib.o)

.text%z344      0x00000000        0x0
 .text          0x00000000        0x0 c:/program files (x86)/microchip/xc32/v1.21/bin/../lib/gcc/pic32mx/4.5.2/../../../../pic32mx/lib\libmchp_peripheral_32MX460F512L.a(_rtcc_set_time_and_date_lib.o)

.text%z345      0x00000000        0x0
 .text          0x00000000        0x0 c:/program files (x86)/microchip/xc32/v1.21/bin/../lib/gcc/pic32mx/4.5.2/../../../../pic32mx/lib\libmchp_peripheral_32MX460F512L.a(int_tbl_lib.o)

.text%z346      0x00000000        0x0
 .text          0x00000000        0x0 c:/program files (x86)/microchip/xc32/v1.21/bin/../lib/gcc/pic32mx/4.5.2/../../../../pic32mx/lib\libmchp_peripheral_32MX460F512L.a(int_enable_interrupts_lib.o)

.text%z347      0x00000000        0x0
 .text          0x00000000        0x0 c:/program files (x86)/microchip/xc32/v1.21/bin/../lib/gcc/pic32mx/4.5.2/../../../../pic32mx/lib\libmchp_peripheral_32MX460F512L.a(rtcc_set_time_lib.o)

.text%z348      0x00000000        0x0
 .text          0x00000000        0x0 c:/program files (x86)/microchip/xc32/v1.21/bin/../lib/gcc/pic32mx/4.5.2/../../../../pic32mx/lib\libmchp_peripheral_32MX460F512L.a(rtcc_set_date_lib.o)

.text%z349      0x00000000        0x0
 .text          0x00000000        0x0 c:/program files (x86)/microchip/xc32/v1.21/bin/../lib/gcc/pic32mx/4.5.2/../../../../pic32mx/lib\libmchp_peripheral_32MX460F512L.a(rtcc_init_lib.o)

.text%z350      0x00000000        0x0
 .text          0x00000000        0x0 c:/program files (x86)/microchip/xc32/v1.21/bin/../lib/gcc/pic32mx/4.5.2/../../../../pic32mx/lib\libmchp_peripheral_32MX460F512L.a(int_enable_mv_int_lib.o)

.text%z351      0x00000000        0x0
 .text          0x00000000        0x0 c:/program files (x86)/microchip/xc32/v1.21/bin/../lib/gcc/pic32mx/4.5.2/../../../../pic32mx/lib\libmchp_peripheral_32MX460F512L.a(int_restore_interrupts_lib.o)

.text%z352      0x00000000        0x0
 .text          0x00000000        0x0 c:/program files (x86)/microchip/xc32/v1.21/bin/../lib/gcc/pic32mx/4.5.2/../../../../pic32mx/lib\libmchp_peripheral_32MX460F512L.a(int_disable_interrupts_lib.o)

.text%z353      0x00000000        0x0
 .text          0x00000000        0x0 c:/program files (x86)/microchip/xc32/v1.21/bin/../lib/gcc/pic32mx/4.5.2/../../../../pic32mx/lib\libmchp_peripheral_32MX460F512L.a(pcache.o)

.text%z354      0x00000000        0x0
 .text          0x00000000        0x0 c:/program files (x86)/microchip/xc32/v1.21/bin/../lib/gcc/pic32mx/4.5.2/../../../../pic32mx/lib/./proc/32MX460F512L\processor.o

.text%z355      0x00000000        0x0
 .text          0x00000000        0x0 c:/program files (x86)/microchip/xc32/v1.21/bin/../lib/gcc/pic32mx/4.5.2/../../../../pic32mx/lib/./proc/32MX460F512L\default_isr_vectors.o

.text%z356      0x00000000        0x0
 .text          0x00000000        0x0 build/C32_PIC32MX460F512L/production/cpld.o

.text%z357      0x00000000        0x0
 .text          0x00000000        0x0 build/C32_PIC32MX460F512L/production/InternalResourceXC32.o

.text%z358      0x00000000        0x0
 .text          0x00000000        0x0 build/C32_PIC32MX460F512L/production/Beep.o

.text%z359      0x00000000        0x0
 .text          0x00000000        0x0 build/C32_PIC32MX460F512L/production/system.o

.text%z360      0x00000000        0x0
 .text          0x00000000        0x0 build/C32_PIC32MX460F512L/production/interrupts.o

.text%z361      0x00000000        0x0
 .text          0x00000000        0x0 build/C32_PIC32MX460F512L/production/configuration_bits.o

.text%z362      0x00000000        0x0
 .text          0x00000000        0x0 build/C32_PIC32MX460F512L/production/graphics/Transitions_weak.o

.text%z363      0x00000000        0x0
 .text          0x00000000        0x0 build/C32_PIC32MX460F512L/production/graphics/Transitions.o

.text%z364      0x00000000        0x0
 .text          0x00000000        0x0 build/C32_PIC32MX460F512L/production/graphics/TextEntry.o

.text%z365      0x00000000        0x0
 .text          0x00000000        0x0 build/C32_PIC32MX460F512L/production/graphics/Template.o

.text%z366      0x00000000        0x0
 .text          0x00000000        0x0 build/C32_PIC32MX460F512L/production/graphics/Palette.o

.text%z367      0x00000000        0x0
 .text          0x00000000        0x0 build/C32_PIC32MX460F512L/production/graphics/Grid.o

.text%z368      0x00000000        0x0
 .text          0x00000000        0x0 build/C32_PIC32MX460F512L/production/graphics/GOLSchemeDefault.o

.text%z369      0x00000000        0x0
 .text          0x00000000        0x0 build/C32_PIC32MX460F512L/production/graphics/Chart.o

.text%z370      0x00000000        0x0
 .text          0x00000000        0x0 build/C32_PIC32MX460F512L/production/graphics/AnalogClock.o
