MPASM  5.42  /HOME/BEKEBAND/MPLABXPROJECTS/MA   3-4-2012  15:48:50         PAGE  1


LOC  OBJECT CODE     LINE SOURCE TEXT
  VALUE

                      00001 
                      00002 
                      00003         ERRORLEVEL 1, -302, -207
                      00004 
                      00005 #include <P16F877A.INC>
                      00001         LIST
                      00002 
                      00003 ;==========================================================================
                      00004 ;  MPASM PIC16F877A processor include
                      00005 ; 
                      00006 ;  (c) Copyright 1999-2011 Microchip Technology, All rights reserved
                      00007 ;==========================================================================
                      00008 
                      00564         LIST
                      00006 #include "registers.inc"
                      00001 
                      00002 #ifndef __REGISTERS_INC           ;Check if inc file already included
                      00003 #define __REGISTERS_INC
                      00004 
                      00005         ERRORLEVEL 1, -207
                      00006 
  0000                00007     EXTERN AX, AL, AH, CX, CH, CL, BX, BH, BL, SI, SIH, SIL, DI, DIH, DIL
  0000                00008     EXTERN DX, DH, DL
                      00009 
                      00010 MOVFSR  macro   REGISTER
                      00011         movfw   REGISTER
                      00012         movwf   FSR
                      00013         endm
                      00014 
                      00015 RAMPAGE macro   PAGENUM
                      00016         bcf             STATUS, IRP
                      00017         movlw   PAGENUM
                      00018         iorlw   0x00
                      00019         btfss   STATUS, Z
                      00020         bsf             STATUS, IRP
                      00021                         endm
                      00022 
                      00023 MOVWLW  macro   REGISTER, CONSTDATA
                      00024         movlw   LOW(CONSTDATA)
                      00025         movwf   REGISTER
                      00026         movlw   HIGH(CONSTDATA)
                      00027         movwf   REGISTER + 1
                      00028                         endm
                      00029 
                      00030 MOVW    macro   DEST_REGISTER, SOURCE_REGISTER
                      00031         movfw   SOURCE_REGISTER
                      00032         movwf   DEST_REGISTER
                      00033         movfw   SOURCE_REGISTER + 1
                      00034         movwf   DEST_REGISTER + 1
                      00035                         endm
                      00036 
                      00037 STOSW   macro   REGISTER
                      00038         movfw   DI
MPASM  5.42  /HOME/BEKEBAND/MPLABXPROJECTS/MA   3-4-2012  15:48:50         PAGE  2


LOC  OBJECT CODE     LINE SOURCE TEXT
  VALUE

                      00039         movwf   FSR
                      00040         movfw   REGISTER
                      00041         movwf   INDF
                      00042         incf    FSR, F
                      00043         movfw   REGISTER + 1
                      00044         movwf   INDF
                      00045                         endm
                      00046 
                      00047 LODSW   macro   REGISTER
                      00048         movfw   SI
                      00049         movwf   FSR
                      00050         movfw   INDF
                      00051         movwf   REGISTER
                      00052         incf    FSR, F
                      00053         movfw   INDF
                      00054         movwf   REGISTER + 1
                      00055                         endm
                      00056 
                      00057 DECW    macro   REGISTER
                      00058         movlw   0x01
                      00059         subwf   REGISTER, F
                      00060         btfss   STATUS, C
                      00061         decf    REGISTER + 1
                      00062                         endm
                      00063 
                      00064 INCW    macro   REGISTER
                      00065         incf    REGISTER
                      00066         btfsc   STATUS, Z
                      00067         incf    REGISTER + 1
                      00068                         endm
                      00069 
                      00070 ISNULLW macro   REGISTER
                      00071         movfw   REGISTER
                      00072         iorwf   REGISTER + 1, W
                      00073                         endm
                      00074 
                      00075 NEGW    macro   REGISTER
                      00076         movlw   REGISTER
                      00077         call    NEGATE_WORD
                      00078                         endm
                      00079 
                      00080 ADDW    macro   REG1RESULT, REG2        ; REG1RESULT = REG1RESULT + REG2
                      00081         MOVW    AX, REG1RESULT
                      00082         MOVW    BX, REG2
                      00083         call    ADDAXBX
                      00084         MOVW    REG1RESULT, AX
                      00085                         endm
                      00086 
                      00087 SUBW    macro   REG1RESULT, REG2        ; REG1RESULT = REG1RESULT - REG2
                      00088         MOVW    AX, REG1RESULT
                      00089         MOVW    BX, REG2
                      00090         call    SUBAXBX
                      00091         MOVW    REG1RESULT, AX
MPASM  5.42  /HOME/BEKEBAND/MPLABXPROJECTS/MA   3-4-2012  15:48:50         PAGE  3


LOC  OBJECT CODE     LINE SOURCE TEXT
  VALUE

                      00092                         endm
                      00093 
                      00094 BYTETOBCD       macro   REG, DEST
                      00095         clrf    AH
                      00096         movfw   REG
                      00097         movwf   AL
                      00098         movlw   DEST
                      00099         movwf   FSR
                      00100         call    WORD_TO_BCD
                      00101                 endm
                      00102 
                      00103 INTTOBCD        macro   REG, DEST
                      00104         MOVW    AX, REG
                      00105         movlw   DEST
                      00106         movwf   FSR
                      00107         call    INT_TO_BCD
                      00108                                 endm
                      00109 
                      00110 WORDTOBCD       macro   REG, DEST
                      00111         MOVW    AX, REG
                      00112         movlw   DEST
                      00113         movwf   FSR
                      00114         call    WORD_TO_BCD
                      00115                                 endm
                      00116 
                      00117 PRINTBCD        macro   IN, OUT
                      00118         movlw   IN
                      00119         movwf   SI
                      00120         movlw   OUT
                      00121         movwf   DI
                      00122         call    PRINT_BCD
                      00123                                 endm
                      00124 
                      00125 PRINTBIN        macro   REG, OUTBUF
                      00126         movlw   OUTBUF
                      00127         movwf   FSR
                      00128         movfw   REG
                      00129         call    PRINT_BIN
                      00130                                 endm
                      00131 
                      00132 PRINTHEX        macro   REG, OUTBUF
                      00133         movlw   OUTBUF
                      00134         movwf   FSR
                      00135         movfw   REG
                      00136         call    PRINT_HEX
                      00137                                 endm
                      00138 
                      00139 
                      00140 #endif
                      00007 
                      00008 #define NUM_LETTER_DISTANCE 7
                      00009 
                      00010         CODE
MPASM  5.42  /HOME/BEKEBAND/MPLABXPROJECTS/MA   3-4-2012  15:48:50         PAGE  4


LOC  OBJECT CODE     LINE SOURCE TEXT
  VALUE

                      00011 
0000                  00012 WORD_TO_BCD                     ; ; Input data (WORD): AX , Output [FSR] + 6 byte nibbles
  0000                00013         GLOBAL  WORD_TO_BCD
0000   1003           00014         bcf     STATUS,0                ; clear the carry bit
0001   3010           00015         movlw   .16
0002   00??           00016         movwf   CL
                      00017         
0003   0180           00018         clrf    INDF                    ; R0, R1, R2
0004   0A84           00019         incf    FSR, F
0005   0180           00020         clrf    INDF
0006   0A84           00021         incf    FSR, F
0007   0180           00022         clrf    INDF
                      00023 
0008   0804           00024         movfw   FSR
0009   00??           00025         movwf   BH                              ; BH = FSR + 2
000A                  00026 return_000
000A                  00027 loop16
000A   08??           00028         movfw   BH              
000B   0084           00029         movwf   FSR                             ; FSR = BH
000C   0D??           00030         rlf     AL, F
000D   0D??           00031         rlf     AH, F
                      00032         
000E   0D80           00033         rlf     INDF, F
000F   0384           00034         decf    FSR
0010   0D80           00035         rlf     INDF, F
0011   0384           00036         decf    FSR
0012   0D80           00037         rlf     INDF, F
                      00038 ;
0013   0B??           00039         decfsz  CL, F
0014   2???           00040         goto    adjDEC_00
0015   3400           00041         RETLW   0
                      00042 ;
0016                  00043 adjDEC_00
0016   08??           00044         movfw   BH
0017   0084           00045         movwf   FSR     
0018   2???           00046         call    adjBCD_01
                      00047 
0019   0384           00048         decf    FSR, F
001A   2???           00049         call    adjBCD_01
                      00050 
001B   0384           00051         decf    FSR, F
001C   2???           00052         call    adjBCD_01
                      00053 
001D   2???           00054         goto    loop16
001E   0008           00055         return
                      00056 
                      00057 
001F                  00058 INT_TO_BCD              ; Input data (integer): AX , Output [FSR] + 6 byte nibbles
  0000                00059         GLOBAL  INT_TO_BCD
001F   01??           00060         clrf    CH
0020   1003           00061         bcf     STATUS,0                ; clear the carry bit
0021   3010           00062         movlw   .16
0022   00??           00063         movwf   CL
MPASM  5.42  /HOME/BEKEBAND/MPLABXPROJECTS/MA   3-4-2012  15:48:50         PAGE  5


LOC  OBJECT CODE     LINE SOURCE TEXT
  VALUE

                      00064         
0023   0180           00065         clrf    INDF                    ; R0, R1, R2
0024   0A84           00066         incf    FSR, F
0025   0180           00067         clrf    INDF
0026   0A84           00068         incf    FSR, F
0027   0180           00069         clrf    INDF
                      00070 
0028   0804           00071         movfw   FSR
0029   00??           00072         movwf   BH                              ; BH = FSR + 2
002A   1B80           00073         btfsc   AH, 0x07
002B   2???           00074         goto    neg_data
002C                  00075 return_001
002C                  00076 loop17
002C   08??           00077         movfw   BH              
002D   0084           00078         movwf   FSR                             ; FSR = BH
002E   0D??           00079         rlf     AL, F
002F   0D??           00080         rlf     AH, F
                      00081         
0030   0D80           00082         rlf     INDF, F
0031   0384           00083         decf    FSR
0032   0D80           00084         rlf     INDF, F
0033   0384           00085         decf    FSR
0034   0D80           00086         rlf     INDF, F
                      00087 ;
0035   0B??           00088         decfsz  CL, F
0036   2???           00089         goto    adjDEC_01
                      00090 
0037   1800           00091         btfsc   CH, 0
0038   1780           00092         bsf             INDF, 0x07
                      00093 
0039   0008           00094         return
                      00095 ;
003A                  00096 adjDEC_01
003A   08??           00097         movfw   BH
003B   0084           00098         movwf   FSR     
003C   2???           00099         call    adjBCD_01
                      00100 
003D   0384           00101         decf    FSR, F
003E   2???           00102         call    adjBCD_01
                      00103 
003F   0384           00104         decf    FSR, F
0040   2???           00105         call    adjBCD_01
                      00106 
0041   2???           00107         goto    loop17
                      00108 
0042                  00109 adjBCD_01
0042   3003           00110         movlw   3
0043   0700           00111         addwf   INDF,W
0044   00??           00112         movwf   BL
0045   1980           00113         btfsc   BL,3          ; test if result > 7
0046   0080           00114         movwf   INDF
0047   3030           00115         movlw   30
0048   0700           00116         addwf   INDF,W
MPASM  5.42  /HOME/BEKEBAND/MPLABXPROJECTS/MA   3-4-2012  15:48:50         PAGE  6


LOC  OBJECT CODE     LINE SOURCE TEXT
  VALUE

0049   00??           00117         movwf   BL
004A   1B80           00118         btfsc   BL,7          ; test if result > 7
004B   0080           00119         movwf   INDF            ; save as MSD
004C   0008           00120         return
                      00121 
004D                  00122 neg_data
                      00123         
                      00124         NEGW    AX      
004D   30??               M         movlw   AX
004E   2???               M         call    NEGATE_WORD
004F   1400           00125         bsf             CH, 0
0050   2???           00126         goto    return_001
                      00127 
                      00128 ; Substraction function AX = AX + (- BX)
                      00129 
0051                  00130 SUBAXBX 
  0000                00131         GLOBAL  SUBAXBX
                      00132         NEGW    BX      
0051   30??               M         movlw   BX
0052   2???               M         call    NEGATE_WORD
                      00133 
                      00134 ; Addition function AX = AX + BX
                      00135 
0053                  00136 ADDAXBX ; AX + BX = AX
  0000                00137         GLOBAL  ADDAXBX
0053   08??           00138         movf    BX, W
0054   07??           00139         addwf   AX, F           ;add lsb
0055   1803           00140         btfsc   STATUS,C        ;add in carry
0056   0A??           00141         incf    AX + 1, F
0057   08??           00142         movf    BX + 1, W
0058   07??           00143         addwf   AX + 1, F       ;add msb
0059   0008           00144         return
                      00145 
                      00146 ; Negate word of FSR addressed register [FSR] = -[FSR]
                      00147         
005A                  00148 NEGATE_WORD
  0000                00149         GLOBAL  NEGATE_WORD
005A   0084           00150         movwf   FSR                                     ; negate ACCW ( -ACCW -> ACCW )
005B   0980           00151         comf    INDF, F 
005C   0A80           00152         incf    INDF, F
005D   0803           00153         movfw   STATUS
005E   0A84           00154         incf    FSR, F
005F   0083           00155         movwf   STATUS
0060   1903           00156         btfsc   STATUS, Z
0061   0380           00157         decf    INDF, F
0062   0980           00158         comf    INDF, F
0063   0384           00159         decf    FSR, F
0064   0804           00160         movfw   FSR
0065   0008           00161         return
                      00162 ;
                      00163 
                      00164 
0066                  00165 PRINT_BCD       ; [SI]: BCD number MSB (3 bytes), [DI]: OUTBUFFER (6 bytes + 1 zero byte)
MPASM  5.42  /HOME/BEKEBAND/MPLABXPROJECTS/MA   3-4-2012  15:48:50         PAGE  7


LOC  OBJECT CODE     LINE SOURCE TEXT
  VALUE

  0000                00166         GLOBAL  PRINT_BCD
                      00167 
                      00168         MOVFSR  SI
0066   08??               M         movfw   SI
0067   0084               M         movwf   FSR
                      00169 
0068   1B80           00170         btfsc   INDF, 0x07      ; negative?
0069   2???           00171         goto    negative
                      00172 
006A                  00173 jump_003
006A   3003           00174         movlw   3
006B   00??           00175         movwf   CL
006C   2???           00176         goto    print_low_nibble
                      00177 
006D                  00178 print_loop
                      00179 
                      00180         MOVFSR  SI
006D   08??               M         movfw   SI
006E   0084               M         movwf   FSR
                      00181 
006F   0800           00182         movfw   INDF
0070   00??           00183         movwf   BL
0071   0E??           00184         swapf   BL, F   ; get high nibble byte, of BCD number
0072   300F           00185         movlw   0x0F
0073   05??           00186         andwf   BL, F
0074   3030           00187         movlw   '0'
0075   07??           00188         addwf   BL, F
                      00189 
                      00190         MOVFSR  DI              ;
0076   08??               M         movfw   DI
0077   0084               M         movwf   FSR
                      00191 
0078   08??           00192         movfw   BL
0079   0080           00193         movwf   INDF    ; store high nibble character
007A   0A??           00194         incf    DI, F
                      00195 
007B                  00196 print_low_nibble
                      00197 
                      00198         MOVFSR  SI              ;
007B   08??               M         movfw   SI
007C   0084               M         movwf   FSR
                      00199 
007D   0800           00200         movfw   INDF
007E   00??           00201         movwf   BL
007F   300F           00202         movlw   0x0F
0080   05??           00203         andwf   BL, F
0081   3030           00204         movlw   '0'
0082   07??           00205         addwf   BL, F
                      00206 
                      00207         MOVFSR  DI
0083   08??               M         movfw   DI
0084   0084               M         movwf   FSR
0085   08??           00208         movfw   BL
MPASM  5.42  /HOME/BEKEBAND/MPLABXPROJECTS/MA   3-4-2012  15:48:50         PAGE  8


LOC  OBJECT CODE     LINE SOURCE TEXT
  VALUE

0086   0080           00209         movwf   INDF
                      00210         
0087   0A??           00211         incf    DI, F
0088   0A??           00212         incf    SI, F
0089   0B??           00213         decfsz  CL
008A   2???           00214         goto    print_loop
                      00215 
008B   0A84           00216         incf    FSR, F
008C   3000           00217         movlw   0
008D   0080           00218         movwf   INDF
                      00219 
008E   0008           00220         return
                      00221 
008F                  00222 negative
                      00223 
                      00224         MOVFSR  DI
008F   08??               M         movfw   DI
0090   0084               M         movwf   FSR
0091   302D           00225         movlw   '-'
0092   0080           00226         movwf   INDF
0093   0A??           00227         incf    DI, F
0094   2???           00228         goto    jump_003
                      00229 
0095                  00230 PRINT_BIN       ; Inputs WREG input byte, FSR OUTBUFFER (8 bytes + 1 zero byte)
  0000                00231         GLOBAL  PRINT_BIN
                      00232 
0095   00??           00233         movwf   AH
0096   3008           00234         movlw   0x08
0097   00??           00235         movwf   CL
                      00236         
0098                  00237 next_bit
                      00238 
0098   3030           00239         movlw   '0'
0099   0D??           00240         rlf     AH, F
009A   1803           00241         btfsc   STATUS, C
009B   3031           00242         movlw   '1'
009C   0080           00243         movwf   INDF
009D   0A84           00244         incf    FSR, F          
                      00245 
009E   0B??           00246         decfsz  CL
009F   2???           00247         goto    next_bit
                      00248 
00A0   3000           00249         movlw   0
00A1   0080           00250         movwf   INDF
                      00251 
00A2   0008           00252         return
                      00253 
00A3                  00254 PRINT_HEX       ; Inputs WREG input byte, FSR OUTBUFFER (2 bytes + 1 zero byte)
  0000                00255         GLOBAL  PRINT_HEX
                      00256 
00A3   00??           00257         movwf   AH
00A4   2???           00258         call    GET_HEX_CHAR
00A5   0A84           00259         incf    FSR, F
MPASM  5.42  /HOME/BEKEBAND/MPLABXPROJECTS/MA   3-4-2012  15:48:50         PAGE  9


LOC  OBJECT CODE     LINE SOURCE TEXT
  VALUE

00A6   0080           00260         movwf   INDF
00A7   0C??           00261         rrf     AH, F
00A8   0C??           00262         rrf     AH, F
00A9   0C??           00263         rrf     AH, F
00AA   0C??           00264         rrf     AH, F
00AB   2???           00265         call    GET_HEX_CHAR
00AC   0384           00266         decf    FSR, F
00AD   0080           00267         movwf   INDF
00AE   0A84           00268         incf    FSR, F
00AF   0A84           00269         incf    FSR, F
00B0   3000           00270         movlw   0
00B1   0080           00271         movwf   INDF
                      00272 
00B2   0008           00273         return
                      00274 
00B3                  00275 GET_HEX_CHAR            ; get hexa char code for wreg
00B3   300F           00276         movlw   0x0F
00B4   05??           00277         andwf   AH, W
00B5   3EF7           00278         addlw   -9
00B6   1803           00279         btfsc   STATUS, C
00B7   3E07           00280         addlw   NUM_LETTER_DISTANCE
00B8   3E30           00281         addlw   '0'
00B9   3E09           00282         addlw   9
00BA   0008           00283         return
                      00284 
                      00285         END
MPASM  5.42  /HOME/BEKEBAND/MPLABXPROJECTS/MA   3-4-2012  15:48:50         PAGE 10


SYMBOL TABLE
  LABEL                             VALUE 

ACKDT                             00000005
ACKEN                             00000004
ACKSTAT                           00000006
ADCON0                            0000001F
ADCON1                            0000009F
ADCS0                             00000006
ADCS1                             00000007
ADCS2                             00000006
ADDAXBX                           00000053
ADDEN                             00000003
ADDW                              
ADFM                              00000007
ADIE                              00000006
ADIF                              00000006
ADON                              00000000
ADRESH                            0000001E
ADRESL                            0000009E
AH                                00000000
AL                                00000000
AX                                00000000
BCLIE                             00000003
BCLIF                             00000003
BF                                00000000
BH                                00000000
BL                                00000000
BRGH                              00000002
BX                                00000000
BYTETOBCD                         
C                                 00000000
C1INV                             00000004
C1OUT                             00000006
C2INV                             00000005
C2OUT                             00000007
CCP1CON                           00000017
CCP1IE                            00000002
CCP1IF                            00000002
CCP1M0                            00000000
CCP1M1                            00000001
CCP1M2                            00000002
CCP1M3                            00000003
CCP1X                             00000005
CCP1Y                             00000004
CCP2CON                           0000001D
CCP2IE                            00000000
CCP2IF                            00000000
CCP2M0                            00000000
CCP2M1                            00000001
CCP2M2                            00000002
CCP2M3                            00000003
CCP2X                             00000005
CCP2Y                             00000004
CCPR1                             00000015
CCPR1H                            00000016
MPASM  5.42  /HOME/BEKEBAND/MPLABXPROJECTS/MA   3-4-2012  15:48:50         PAGE 11


SYMBOL TABLE
  LABEL                             VALUE 

CCPR1L                            00000015
CCPR2                             0000001B
CCPR2H                            0000001C
CCPR2L                            0000001B
CH                                00000000
CHS0                              00000003
CHS1                              00000004
CHS2                              00000005
CIS                               00000003
CKE                               00000006
CKP                               00000004
CL                                00000000
CM0                               00000000
CM1                               00000001
CM2                               00000002
CMCON                             0000009C
CMIE                              00000006
CMIF                              00000006
CREN                              00000004
CSRC                              00000007
CVR0                              00000000
CVR1                              00000001
CVR2                              00000002
CVR3                              00000003
CVRCON                            0000009D
CVREN                             00000007
CVROE                             00000006
CVRR                              00000005
CX                                00000000
D                                 00000005
DATA_ADDRESS                      00000005
DC                                00000001
DECW                              
DH                                00000000
DI                                00000000
DIH                               00000000
DIL                               00000000
DL                                00000000
DX                                00000000
D_A                               00000005
D_NOT_A                           00000005
EEADR                             0000010D
EEADRH                            0000010F
EECON1                            0000018C
EECON2                            0000018D
EEDATA                            0000010C
EEDATH                            0000010E
EEIE                              00000004
EEIF                              00000004
EEPGD                             00000007
F                                 00000001
FERR                              00000002
FSR                               00000004
MPASM  5.42  /HOME/BEKEBAND/MPLABXPROJECTS/MA   3-4-2012  15:48:50         PAGE 12


SYMBOL TABLE
  LABEL                             VALUE 

GCEN                              00000007
GET_HEX_CHAR                      000000B3
GIE                               00000007
GO                                00000002
GO_DONE                           00000002
GO_NOT_DONE                       00000002
I2C_DATA                          00000005
I2C_READ                          00000002
I2C_START                         00000003
I2C_STOP                          00000004
IBF                               00000007
IBOV                              00000005
INCW                              
INDF                              00000000
INTCON                            0000000B
INTE                              00000004
INTEDG                            00000006
INTF                              00000001
INTTOBCD                          
INT_TO_BCD                        0000001F
IRP                               00000007
ISNULLW                           
LODSW                             
MOVFSR                            
MOVW                              
MOVWLW                            
NEGATE_WORD                       0000005A
NEGW                              
NOT_A                             00000005
NOT_ADDRESS                       00000005
NOT_BO                            00000000
NOT_BOR                           00000000
NOT_DONE                          00000002
NOT_PD                            00000003
NOT_POR                           00000001
NOT_RBPU                          00000007
NOT_RC8                           00000006
NOT_T1SYNC                        00000002
NOT_TO                            00000004
NOT_TX8                           00000006
NOT_W                             00000002
NOT_WRITE                         00000002
NUM_LETTER_DISTANCE               7
OBF                               00000006
OERR                              00000001
OPTION_REG                        00000081
P                                 00000004
PCFG0                             00000000
PCFG1                             00000001
PCFG2                             00000002
PCFG3                             00000003
PCL                               00000002
PCLATH                            0000000A
MPASM  5.42  /HOME/BEKEBAND/MPLABXPROJECTS/MA   3-4-2012  15:48:50         PAGE 13


SYMBOL TABLE
  LABEL                             VALUE 

PCON                              0000008E
PEIE                              00000006
PEN                               00000002
PIE1                              0000008C
PIE2                              0000008D
PIR1                              0000000C
PIR2                              0000000D
PORTA                             00000005
PORTB                             00000006
PORTC                             00000007
PORTD                             00000008
PORTE                             00000009
PR2                               00000092
PRINTBCD                          
PRINTBIN                          
PRINTHEX                          
PRINT_BCD                         00000066
PRINT_BIN                         00000095
PRINT_HEX                         000000A3
PS0                               00000000
PS1                               00000001
PS2                               00000002
PSA                               00000003
PSPIE                             00000007
PSPIF                             00000007
PSPMODE                           00000004
R                                 00000002
RA0                               00000000
RA1                               00000001
RA2                               00000002
RA3                               00000003
RA4                               00000004
RA5                               00000005
RAMPAGE                           
RB0                               00000000
RB1                               00000001
RB2                               00000002
RB3                               00000003
RB4                               00000004
RB5                               00000005
RB6                               00000006
RB7                               00000007
RBIE                              00000003
RBIF                              00000000
RC0                               00000000
RC1                               00000001
RC2                               00000002
RC3                               00000003
RC4                               00000004
RC5                               00000005
RC6                               00000006
RC7                               00000007
RC8_9                             00000006
MPASM  5.42  /HOME/BEKEBAND/MPLABXPROJECTS/MA   3-4-2012  15:48:50         PAGE 14


SYMBOL TABLE
  LABEL                             VALUE 

RC9                               00000006
RCD8                              00000000
RCEN                              00000003
RCIE                              00000005
RCIF                              00000005
RCREG                             0000001A
RCSTA                             00000018
RD                                00000000
RD0                               00000000
RD1                               00000001
RD2                               00000002
RD3                               00000003
RD4                               00000004
RD5                               00000005
RD6                               00000006
RD7                               00000007
RE0                               00000000
RE1                               00000001
RE2                               00000002
READ_WRITE                        00000002
RP0                               00000005
RP1                               00000006
RSEN                              00000001
RX9                               00000006
RX9D                              00000000
R_NOT_W                           00000002
R_W                               00000002
S                                 00000003
SEN                               00000000
SI                                00000000
SIH                               00000000
SIL                               00000000
SMP                               00000007
SPBRG                             00000099
SPEN                              00000007
SREN                              00000005
SSPADD                            00000093
SSPBUF                            00000013
SSPCON                            00000014
SSPCON2                           00000091
SSPEN                             00000005
SSPIE                             00000003
SSPIF                             00000003
SSPM0                             00000000
SSPM1                             00000001
SSPM2                             00000002
SSPM3                             00000003
SSPOV                             00000006
SSPSTAT                           00000094
STATUS                            00000003
STOSW                             
SUBAXBX                           00000051
SUBW                              
MPASM  5.42  /HOME/BEKEBAND/MPLABXPROJECTS/MA   3-4-2012  15:48:50         PAGE 15


SYMBOL TABLE
  LABEL                             VALUE 

SYNC                              00000004
T0CS                              00000005
T0IE                              00000005
T0IF                              00000002
T0SE                              00000004
T1CKPS0                           00000004
T1CKPS1                           00000005
T1CON                             00000010
T1INSYNC                          00000002
T1OSCEN                           00000003
T1SYNC                            00000002
T2CKPS0                           00000000
T2CKPS1                           00000001
T2CON                             00000012
TMR0                              00000001
TMR0IE                            00000005
TMR0IF                            00000002
TMR1CS                            00000001
TMR1H                             0000000F
TMR1IE                            00000000
TMR1IF                            00000000
TMR1L                             0000000E
TMR1ON                            00000000
TMR2                              00000011
TMR2IE                            00000001
TMR2IF                            00000001
TMR2ON                            00000002
TOUTPS0                           00000003
TOUTPS1                           00000004
TOUTPS2                           00000005
TOUTPS3                           00000006
TRISA                             00000085
TRISA0                            00000000
TRISA1                            00000001
TRISA2                            00000002
TRISA3                            00000003
TRISA4                            00000004
TRISA5                            00000005
TRISB                             00000086
TRISB0                            00000000
TRISB1                            00000001
TRISB2                            00000002
TRISB3                            00000003
TRISB4                            00000004
TRISB5                            00000005
TRISB6                            00000006
TRISB7                            00000007
TRISC                             00000087
TRISC0                            00000000
TRISC1                            00000001
TRISC2                            00000002
TRISC3                            00000003
TRISC4                            00000004
MPASM  5.42  /HOME/BEKEBAND/MPLABXPROJECTS/MA   3-4-2012  15:48:50         PAGE 16


SYMBOL TABLE
  LABEL                             VALUE 

TRISC5                            00000005
TRISC6                            00000006
TRISC7                            00000007
TRISD                             00000088
TRISD0                            00000000
TRISD1                            00000001
TRISD2                            00000002
TRISD3                            00000003
TRISD4                            00000004
TRISD5                            00000005
TRISD6                            00000006
TRISD7                            00000007
TRISE                             00000089
TRISE0                            00000000
TRISE1                            00000001
TRISE2                            00000002
TRMT                              00000001
TX8_9                             00000006
TX9                               00000006
TX9D                              00000000
TXD8                              00000000
TXEN                              00000005
TXIE                              00000004
TXIF                              00000004
TXREG                             00000019
TXSTA                             00000098
UA                                00000001
W                                 00000000
WCOL                              00000007
WORDTOBCD                         
WORD_TO_BCD                       00000000
WR                                00000001
WREN                              00000002
WRERR                             00000003
Z                                 00000002
_BODEN_OFF                        00003FBF
_BODEN_ON                         00003FFF
_BOREN_OFF                        00003FBF
_BOREN_ON                         00003FFF
_CONFIG                           00002007
_CPD_OFF                          00003FFF
_CPD_ON                           00003EFF
_CP_ALL                           00001FFF
_CP_OFF                           00003FFF
_CP_ON                            00001FFF
_DEBUG_OFF                        00003FFF
_DEBUG_ON                         000037FF
_DEVID1                           00002006
_FOSC_EXTRC                       00003FFF
_FOSC_HS                          00003FFE
_FOSC_LP                          00003FFC
_FOSC_XT                          00003FFD
_HS_OSC                           00003FFE
MPASM  5.42  /HOME/BEKEBAND/MPLABXPROJECTS/MA   3-4-2012  15:48:50         PAGE 17


SYMBOL TABLE
  LABEL                             VALUE 

_IDLOC0                           00002000
_IDLOC1                           00002001
_IDLOC2                           00002002
_IDLOC3                           00002003
_LP_OSC                           00003FFC
_LVP_OFF                          00003F7F
_LVP_ON                           00003FFF
_PWRTE_OFF                        00003FFF
_PWRTE_ON                         00003FF7
_RC_OSC                           00003FFF
_WDTE_OFF                         00003FFB
_WDTE_ON                          00003FFF
_WDT_OFF                          00003FFB
_WDT_ON                           00003FFF
_WRT_1FOURTH                      00003BFF
_WRT_256                          00003DFF
_WRT_HALF                         000039FF
_WRT_OFF                          00003FFF
_XT_OSC                           00003FFD
__16F877A                         00000001
__REGISTERS_INC                   
adjBCD_01                         00000042
adjDEC_00                         00000016
adjDEC_01                         0000003A
jump_003                          0000006A
loop16                            0000000A
loop17                            0000002C
neg_data                          0000004D
negative                          0000008F
next_bit                          00000098
print_loop                        0000006D
print_low_nibble                  0000007B
return_000                        0000000A
return_001                        0000002C

Errors   :     0
Warnings :     0 reported,     0 suppressed
Messages :     0 reported,     6 suppressed

